
os:     file format elf32-littleriscv


Disassembly of section .text:

00000000 <_start>:
# .global _start
# 
# # sets up the stack before calling c function 'run' in 'os.c'
# _start:
#     li sp, 0x1fff0
   0:	00020137          	lui	sp,0x20
   4:	ff010113          	add	sp,sp,-16 # 1fff0 <__global_pointer$+0x1d5ac>
   8:	004000ef          	jal	c <run>

0000000c <run>:
# void run() {
#   unsigned char active_entity = 1;
#   input_buffer inbuf;
#   inbuf.ix = 0;
# 
#   uart_send_str(hello);
   c:	000027b7          	lui	a5,0x2
  10:	5d47a503          	lw	a0,1492(a5) # 25d4 <hello>
# void run() {
  14:	f8010113          	add	sp,sp,-128
  18:	07212823          	sw	s2,112(sp)
# 
#   while (1) {
#     const entity *ent = &entities[active_entity];
#     print_location(ent->location, active_entity);
  1c:	00002937          	lui	s2,0x2
# void run() {
  20:	06812c23          	sw	s0,120(sp)
  24:	07312623          	sw	s3,108(sp)
  28:	07412423          	sw	s4,104(sp)
  2c:	07512223          	sw	s5,100(sp)
  30:	06112e23          	sw	ra,124(sp)
  34:	06912a23          	sw	s1,116(sp)
#   inbuf.ix = 0;
  38:	04010e23          	sb	zero,92(sp)
#   unsigned char active_entity = 1;
  3c:	00100413          	li	s0,1
#   uart_send_str(hello);
  40:	00001097          	auipc	ra,0x1
  44:	e3c080e7          	jalr	-452(ra) # e7c <uart_send_str>
#     print_location(ent->location, active_entity);
  48:	25490913          	add	s2,s2,596 # 2254 <entities>
#     uart_send_str(ent->name);
#     uart_send_str(" > ");
  4c:	00001ab7          	lui	s5,0x1
#     input(&inbuf);
#     uart_send_str("\r\n");
  50:	00001a37          	lui	s4,0x1
  54:	00300993          	li	s3,3
#     print_location(ent->location, active_entity);
  58:	00241493          	sll	s1,s0,0x2
  5c:	008484b3          	add	s1,s1,s0
  60:	00349493          	sll	s1,s1,0x3
  64:	009904b3          	add	s1,s2,s1
  68:	0044c503          	lbu	a0,4(s1)
  6c:	00040593          	mv	a1,s0
  70:	00000097          	auipc	ra,0x0
  74:	2d8080e7          	jalr	728(ra) # 348 <print_location>
#     uart_send_str(ent->name);
  78:	0004a503          	lw	a0,0(s1)
  7c:	00001097          	auipc	ra,0x1
  80:	e00080e7          	jalr	-512(ra) # e7c <uart_send_str>
#     uart_send_str(" > ");
  84:	feca8513          	add	a0,s5,-20 # fec <delay+0xc4>
  88:	00001097          	auipc	ra,0x1
  8c:	df4080e7          	jalr	-524(ra) # e7c <uart_send_str>
#     input(&inbuf);
  90:	00c10513          	add	a0,sp,12
  94:	00001097          	auipc	ra,0x1
  98:	d10080e7          	jalr	-752(ra) # da4 <input>
#     uart_send_str("\r\n");
  9c:	08ca0513          	add	a0,s4,140 # 108c <delay+0x164>
  a0:	00001097          	auipc	ra,0x1
  a4:	ddc080e7          	jalr	-548(ra) # e7c <uart_send_str>
#     handle_input(active_entity, &inbuf);
  a8:	00040513          	mv	a0,s0
  ac:	00c10593          	add	a1,sp,12
  b0:	40898433          	sub	s0,s3,s0
  b4:	00000097          	auipc	ra,0x0
  b8:	010080e7          	jalr	16(ra) # c4 <handle_input>
#     if (active_entity == 1)
  bc:	0ff47413          	zext.b	s0,s0
  c0:	f99ff06f          	j	58 <run+0x4c>

000000c4 <handle_input>:
#     else
#       active_entity = 1;
#   }
# }
# 
# void handle_input(entity_id eid, input_buffer *buf) {
  c4:	fd010113          	add	sp,sp,-48
  c8:	02812423          	sw	s0,40(sp)
  cc:	03212023          	sw	s2,32(sp)
  d0:	00050413          	mv	s0,a0
  d4:	02112623          	sw	ra,44(sp)
  d8:	02912223          	sw	s1,36(sp)
  dc:	00010793          	mv	a5,sp
#   const char *words[8];
#   char *ptr = buf->line;
#   unsigned nwords = 0;
  e0:	00000913          	li	s2,0
#   while (1) {
#     words[nwords++] = ptr;
#     while (*ptr && *ptr != ' ') {
  e4:	02000513          	li	a0,32
#     }
#     if (!*ptr)
#       break;
#     *ptr = 0;
#     ptr++;
#     if (nwords == sizeof(words) / sizeof(const char *)) {
  e8:	00800613          	li	a2,8
#     words[nwords++] = ptr;
  ec:	00190913          	add	s2,s2,1
  f0:	00b7a023          	sw	a1,0(a5)
#     while (*ptr && *ptr != ' ') {
  f4:	0005c683          	lbu	a3,0(a1)
#       ptr++;
  f8:	00058713          	mv	a4,a1
#     while (*ptr && *ptr != ' ') {
  fc:	02068463          	beqz	a3,124 <handle_input+0x60>
#       ptr++;
 100:	00158593          	add	a1,a1,1
#     while (*ptr && *ptr != ' ') {
 104:	fea698e3          	bne	a3,a0,f4 <handle_input+0x30>
#     *ptr = 0;
 108:	00070023          	sb	zero,0(a4)
#     if (nwords == sizeof(words) / sizeof(const char *)) {
 10c:	00478793          	add	a5,a5,4
 110:	fcc91ee3          	bne	s2,a2,ec <handle_input+0x28>
#       uart_send_str("too many words, some ignored\r\n\r\n");
 114:	00001537          	lui	a0,0x1
 118:	ff050513          	add	a0,a0,-16 # ff0 <delay+0xc8>
 11c:	00001097          	auipc	ra,0x1
 120:	d60080e7          	jalr	-672(ra) # e7c <uart_send_str>
#   }
#   //  for (unsigned i = 0; i < nwords; i++) {
#   //    uart_send_str(words[i]);
#   //    uart_send_str("\r\n");
#   //  }
#   if (strings_equal(words[0], "help")) {
 124:	00012483          	lw	s1,0(sp)
 128:	000015b7          	lui	a1,0x1
 12c:	01458593          	add	a1,a1,20 # 1014 <delay+0xec>
 130:	00048513          	mv	a0,s1
 134:	00001097          	auipc	ra,0x1
 138:	d18080e7          	jalr	-744(ra) # e4c <strings_equal>
 13c:	02050063          	beqz	a0,15c <handle_input+0x98>
#     }
#     action_give(eid, words[1], words[2]);
#   } else {
#     uart_send_str("not understood\r\n\r\n");
#   }
# }
 140:	02812403          	lw	s0,40(sp)
 144:	02c12083          	lw	ra,44(sp)
 148:	02412483          	lw	s1,36(sp)
 14c:	02012903          	lw	s2,32(sp)
 150:	03010113          	add	sp,sp,48
#     print_help();
 154:	00001317          	auipc	t1,0x1
 158:	c4030067          	jr	-960(t1) # d94 <print_help>
#   } else if (strings_equal(words[0], "i")) {
 15c:	000015b7          	lui	a1,0x1
 160:	01c58593          	add	a1,a1,28 # 101c <delay+0xf4>
 164:	00048513          	mv	a0,s1
 168:	00001097          	auipc	ra,0x1
 16c:	ce4080e7          	jalr	-796(ra) # e4c <strings_equal>
 170:	02050a63          	beqz	a0,1a4 <handle_input+0xe0>
#     action_inventory(eid);
 174:	00040513          	mv	a0,s0
 178:	00000097          	auipc	ra,0x0
 17c:	400080e7          	jalr	1024(ra) # 578 <action_inventory>
#     uart_send_str("\r\n");
 180:	00001537          	lui	a0,0x1
 184:	08c50513          	add	a0,a0,140 # 108c <delay+0x164>
# }
 188:	02812403          	lw	s0,40(sp)
 18c:	02c12083          	lw	ra,44(sp)
 190:	02412483          	lw	s1,36(sp)
 194:	02012903          	lw	s2,32(sp)
 198:	03010113          	add	sp,sp,48
#     uart_send_str("not understood\r\n\r\n");
 19c:	00001317          	auipc	t1,0x1
 1a0:	ce030067          	jr	-800(t1) # e7c <uart_send_str>
#   } else if (strings_equal(words[0], "t")) {
 1a4:	000015b7          	lui	a1,0x1
 1a8:	02058593          	add	a1,a1,32 # 1020 <delay+0xf8>
 1ac:	00048513          	mv	a0,s1
 1b0:	00001097          	auipc	ra,0x1
 1b4:	c9c080e7          	jalr	-868(ra) # e4c <strings_equal>
 1b8:	02050e63          	beqz	a0,1f4 <handle_input+0x130>
#     if (nwords < 2) {
 1bc:	00100793          	li	a5,1
 1c0:	00f91863          	bne	s2,a5,1d0 <handle_input+0x10c>
#       uart_send_str("take what\r\n\r\n");
 1c4:	00001537          	lui	a0,0x1
 1c8:	02450513          	add	a0,a0,36 # 1024 <delay+0xfc>
 1cc:	fbdff06f          	j	188 <handle_input+0xc4>
#     action_take(eid, words[1]);
 1d0:	00040513          	mv	a0,s0
# }
 1d4:	02812403          	lw	s0,40(sp)
#     action_take(eid, words[1]);
 1d8:	00412583          	lw	a1,4(sp)
# }
 1dc:	02c12083          	lw	ra,44(sp)
 1e0:	02412483          	lw	s1,36(sp)
 1e4:	02012903          	lw	s2,32(sp)
 1e8:	03010113          	add	sp,sp,48
#     action_take(eid, words[1]);
 1ec:	00000317          	auipc	t1,0x0
 1f0:	5ac30067          	jr	1452(t1) # 798 <action_take>
#   } else if (strings_equal(words[0], "d")) {
 1f4:	000015b7          	lui	a1,0x1
 1f8:	03458593          	add	a1,a1,52 # 1034 <delay+0x10c>
 1fc:	00048513          	mv	a0,s1
 200:	00001097          	auipc	ra,0x1
 204:	c4c080e7          	jalr	-948(ra) # e4c <strings_equal>
 208:	02050e63          	beqz	a0,244 <handle_input+0x180>
#     if (nwords < 2) {
 20c:	00100793          	li	a5,1
 210:	00f91863          	bne	s2,a5,220 <handle_input+0x15c>
#       uart_send_str("drop what\r\n\r\n");
 214:	00001537          	lui	a0,0x1
 218:	03850513          	add	a0,a0,56 # 1038 <delay+0x110>
 21c:	f6dff06f          	j	188 <handle_input+0xc4>
#     action_drop(eid, words[1]);
 220:	00040513          	mv	a0,s0
# }
 224:	02812403          	lw	s0,40(sp)
#     action_drop(eid, words[1]);
 228:	00412583          	lw	a1,4(sp)
# }
 22c:	02c12083          	lw	ra,44(sp)
 230:	02412483          	lw	s1,36(sp)
 234:	02012903          	lw	s2,32(sp)
 238:	03010113          	add	sp,sp,48
#     action_drop(eid, words[1]);
 23c:	00000317          	auipc	t1,0x0
 240:	6d030067          	jr	1744(t1) # 90c <action_drop>
#   } else if (strings_equal(words[0], "n")) {
 244:	000015b7          	lui	a1,0x1
 248:	04858593          	add	a1,a1,72 # 1048 <delay+0x120>
 24c:	00048513          	mv	a0,s1
 250:	00001097          	auipc	ra,0x1
 254:	bfc080e7          	jalr	-1028(ra) # e4c <strings_equal>
#     action_go(eid, 0);
 258:	00000593          	li	a1,0
#   } else if (strings_equal(words[0], "n")) {
 25c:	04051c63          	bnez	a0,2b4 <handle_input+0x1f0>
#   } else if (strings_equal(words[0], "e")) {
 260:	000015b7          	lui	a1,0x1
 264:	fa058593          	add	a1,a1,-96 # fa0 <delay+0x78>
 268:	00048513          	mv	a0,s1
 26c:	00001097          	auipc	ra,0x1
 270:	be0080e7          	jalr	-1056(ra) # e4c <strings_equal>
#     action_go(eid, 1);
 274:	00100593          	li	a1,1
#   } else if (strings_equal(words[0], "e")) {
 278:	02051e63          	bnez	a0,2b4 <handle_input+0x1f0>
#   } else if (strings_equal(words[0], "s")) {
 27c:	000015b7          	lui	a1,0x1
 280:	04c58593          	add	a1,a1,76 # 104c <delay+0x124>
 284:	00048513          	mv	a0,s1
 288:	00001097          	auipc	ra,0x1
 28c:	bc4080e7          	jalr	-1084(ra) # e4c <strings_equal>
#     action_go(eid, 2);
 290:	00200593          	li	a1,2
#   } else if (strings_equal(words[0], "s")) {
 294:	02051063          	bnez	a0,2b4 <handle_input+0x1f0>
#   } else if (strings_equal(words[0], "w")) {
 298:	000015b7          	lui	a1,0x1
 29c:	05058593          	add	a1,a1,80 # 1050 <delay+0x128>
 2a0:	00048513          	mv	a0,s1
 2a4:	00001097          	auipc	ra,0x1
 2a8:	ba8080e7          	jalr	-1112(ra) # e4c <strings_equal>
 2ac:	02050463          	beqz	a0,2d4 <handle_input+0x210>
#     action_go(eid, 3);
 2b0:	00300593          	li	a1,3
 2b4:	00040513          	mv	a0,s0
# }
 2b8:	02812403          	lw	s0,40(sp)
 2bc:	02c12083          	lw	ra,44(sp)
 2c0:	02412483          	lw	s1,36(sp)
 2c4:	02012903          	lw	s2,32(sp)
 2c8:	03010113          	add	sp,sp,48
#     action_go(eid, 3);
 2cc:	00000317          	auipc	t1,0x0
 2d0:	7c430067          	jr	1988(t1) # a90 <action_go>
#   } else if (strings_equal(words[0], "g")) {
 2d4:	000015b7          	lui	a1,0x1
 2d8:	05458593          	add	a1,a1,84 # 1054 <delay+0x12c>
 2dc:	00048513          	mv	a0,s1
 2e0:	00001097          	auipc	ra,0x1
 2e4:	b6c080e7          	jalr	-1172(ra) # e4c <strings_equal>
 2e8:	04050a63          	beqz	a0,33c <handle_input+0x278>
#     if (nwords < 2) {
 2ec:	00100793          	li	a5,1
 2f0:	00f91863          	bne	s2,a5,300 <handle_input+0x23c>
#       uart_send_str("give what\r\n\r\n");
 2f4:	00001537          	lui	a0,0x1
 2f8:	05850513          	add	a0,a0,88 # 1058 <delay+0x130>
 2fc:	e8dff06f          	j	188 <handle_input+0xc4>
#     if (nwords < 3) {
 300:	00200793          	li	a5,2
 304:	00f91863          	bne	s2,a5,314 <handle_input+0x250>
#       uart_send_str("give to whom\r\n\r\n");
 308:	00001537          	lui	a0,0x1
 30c:	06850513          	add	a0,a0,104 # 1068 <delay+0x140>
 310:	e79ff06f          	j	188 <handle_input+0xc4>
#     action_give(eid, words[1], words[2]);
 314:	00040513          	mv	a0,s0
# }
 318:	02812403          	lw	s0,40(sp)
#     action_give(eid, words[1], words[2]);
 31c:	00812603          	lw	a2,8(sp)
 320:	00412583          	lw	a1,4(sp)
# }
 324:	02c12083          	lw	ra,44(sp)
 328:	02412483          	lw	s1,36(sp)
 32c:	02012903          	lw	s2,32(sp)
 330:	03010113          	add	sp,sp,48
#     action_give(eid, words[1], words[2]);
 334:	00001317          	auipc	t1,0x1
 338:	85030067          	jr	-1968(t1) # b84 <action_give>
#     uart_send_str("not understood\r\n\r\n");
 33c:	00001537          	lui	a0,0x1
 340:	07c50513          	add	a0,a0,124 # 107c <delay+0x154>
 344:	e45ff06f          	j	188 <handle_input+0xc4>

00000348 <print_location>:
# 
# void print_location(location_id lid, entity_id eid_exclude_from_output) {
 348:	fd010113          	add	sp,sp,-48
 34c:	03212023          	sw	s2,32(sp)
 350:	00050913          	mv	s2,a0
 354:	02812423          	sw	s0,40(sp)
#   const location *loc = &locations[lid];
#   uart_send_str("u r in ");
#   uart_send_str(loc->name);
 358:	00391413          	sll	s0,s2,0x3
 35c:	01240433          	add	s0,s0,s2
#   uart_send_str("u r in ");
 360:	00001537          	lui	a0,0x1
#   uart_send_str(loc->name);
 364:	00241413          	sll	s0,s0,0x2
# void print_location(location_id lid, entity_id eid_exclude_from_output) {
 368:	02912223          	sw	s1,36(sp)
#   uart_send_str("u r in ");
 36c:	09050513          	add	a0,a0,144 # 1090 <delay+0x168>
#   uart_send_str(loc->name);
 370:	000024b7          	lui	s1,0x2
 374:	01240433          	add	s0,s0,s2
# void print_location(location_id lid, entity_id eid_exclude_from_output) {
 378:	02112623          	sw	ra,44(sp)
 37c:	01312e23          	sw	s3,28(sp)
 380:	01412c23          	sw	s4,24(sp)
 384:	00058993          	mv	s3,a1
#   uart_send_str(loc->name);
 388:	2cc48a13          	add	s4,s1,716 # 22cc <locations>
# void print_location(location_id lid, entity_id eid_exclude_from_output) {
 38c:	01512a23          	sw	s5,20(sp)
#   uart_send_str(loc->name);
 390:	00241413          	sll	s0,s0,0x2
# void print_location(location_id lid, entity_id eid_exclude_from_output) {
 394:	01612823          	sw	s6,16(sp)
 398:	01712623          	sw	s7,12(sp)
 39c:	01812423          	sw	s8,8(sp)
 3a0:	01912223          	sw	s9,4(sp)
#   uart_send_str("u r in ");
 3a4:	00001097          	auipc	ra,0x1
 3a8:	ad8080e7          	jalr	-1320(ra) # e7c <uart_send_str>
#   uart_send_str(loc->name);
 3ac:	008a07b3          	add	a5,s4,s0
 3b0:	0007a503          	lw	a0,0(a5)
#   uart_send_str("\r\nu c: ");
# 
#   // print objects in current location
#   bool add_list_sep = FALSE;
#   const object_id *lso = loc->objects;
 3b4:	00440a93          	add	s5,s0,4
 3b8:	014a8ab3          	add	s5,s5,s4
#   uart_send_str(loc->name);
 3bc:	00001097          	auipc	ra,0x1
 3c0:	ac0080e7          	jalr	-1344(ra) # e7c <uart_send_str>
#   uart_send_str("\r\nu c: ");
 3c4:	00001537          	lui	a0,0x1
 3c8:	09850513          	add	a0,a0,152 # 1098 <delay+0x170>
 3cc:	00001097          	auipc	ra,0x1
 3d0:	ab0080e7          	jalr	-1360(ra) # e7c <uart_send_str>
#   for (unsigned i = 0; i < LOCATION_MAX_OBJECTS; i++) {
#     const object_id oid = lso[i];
 3d4:	000ac903          	lbu	s2,0(s5)
#     if (!oid)
 3d8:	2cc48493          	add	s1,s1,716
 3dc:	18090463          	beqz	s2,564 <print_location+0x21c>
#     if (add_list_sep) {
#       uart_send_str(", ");
#     } else {
#       add_list_sep = TRUE;
#     }
#     uart_send_str(objects[oid].name);
 3e0:	00002b37          	lui	s6,0x2
#   for (unsigned i = 0; i < LOCATION_MAX_OBJECTS; i++) {
 3e4:	00000a13          	li	s4,0
#     uart_send_str(objects[oid].name);
 3e8:	244b0b13          	add	s6,s6,580 # 2244 <objects>
#   for (unsigned i = 0; i < LOCATION_MAX_OBJECTS; i++) {
 3ec:	08000b93          	li	s7,128
#       uart_send_str(", ");
 3f0:	00001c37          	lui	s8,0x1
#     uart_send_str(objects[oid].name);
 3f4:	00291913          	sll	s2,s2,0x2
 3f8:	012b0933          	add	s2,s6,s2
 3fc:	00092503          	lw	a0,0(s2)
#   for (unsigned i = 0; i < LOCATION_MAX_OBJECTS; i++) {
 400:	001a0a13          	add	s4,s4,1
#     uart_send_str(objects[oid].name);
 404:	00001097          	auipc	ra,0x1
 408:	a78080e7          	jalr	-1416(ra) # e7c <uart_send_str>
#   for (unsigned i = 0; i < LOCATION_MAX_OBJECTS; i++) {
 40c:	017a0863          	beq	s4,s7,41c <print_location+0xd4>
#     const object_id oid = lso[i];
 410:	014a87b3          	add	a5,s5,s4
 414:	0007c903          	lbu	s2,0(a5)
#     if (!oid)
 418:	12091e63          	bnez	s2,554 <print_location+0x20c>
#   }
#   if (!add_list_sep) {
#     uart_send_str("nothing");
#   }
#   uart_send_str("\r\n");
 41c:	00001a37          	lui	s4,0x1
 420:	08ca0513          	add	a0,s4,140 # 108c <delay+0x164>
 424:	00001097          	auipc	ra,0x1
 428:	a58080e7          	jalr	-1448(ra) # e7c <uart_send_str>
#     if (add_list_sep) {
#       uart_send_str(", ");
#     } else {
#       add_list_sep = TRUE;
#     }
#     uart_send_str(entities[eid].name);
 42c:	00002937          	lui	s2,0x2
 430:	08440b13          	add	s6,s0,132
#   for (unsigned i = 0; i < LOCATION_MAX_ENTITIES; i++) {
 434:	00000c13          	li	s8,0
#   add_list_sep = FALSE;
 438:	00000793          	li	a5,0
#     uart_send_str(entities[eid].name);
 43c:	25490913          	add	s2,s2,596 # 2254 <entities>
#       uart_send_str(", ");
 440:	00001bb7          	lui	s7,0x1
#   for (unsigned i = 0; i < LOCATION_MAX_ENTITIES; i++) {
 444:	00800a93          	li	s5,8
#     const entity_id eid = lse[i];
 448:	016c0733          	add	a4,s8,s6
 44c:	00e48733          	add	a4,s1,a4
 450:	00074c83          	lbu	s9,0(a4)
#     if (!eid)
 454:	040c8063          	beqz	s9,494 <print_location+0x14c>
#     if (eid == eid_exclude_from_output)
 458:	033c8a63          	beq	s9,s3,48c <print_location+0x144>
#     if (add_list_sep) {
 45c:	00078863          	beqz	a5,46c <print_location+0x124>
#       uart_send_str(", ");
 460:	0a0b8513          	add	a0,s7,160 # 10a0 <delay+0x178>
 464:	00001097          	auipc	ra,0x1
 468:	a18080e7          	jalr	-1512(ra) # e7c <uart_send_str>
#     uart_send_str(entities[eid].name);
 46c:	002c9793          	sll	a5,s9,0x2
 470:	019787b3          	add	a5,a5,s9
 474:	00379793          	sll	a5,a5,0x3
 478:	00f907b3          	add	a5,s2,a5
 47c:	0007a503          	lw	a0,0(a5)
 480:	00001097          	auipc	ra,0x1
 484:	9fc080e7          	jalr	-1540(ra) # e7c <uart_send_str>
 488:	00100793          	li	a5,1
#   for (unsigned i = 0; i < LOCATION_MAX_ENTITIES; i++) {
 48c:	001c0c13          	add	s8,s8,1 # 1001 <delay+0xd9>
 490:	fb5c1ce3          	bne	s8,s5,448 <print_location+0x100>
#   }
#   if (add_list_sep) {
 494:	00078a63          	beqz	a5,4a8 <print_location+0x160>
#     uart_send_str(" is here\r\n");
 498:	00001537          	lui	a0,0x1
 49c:	0a450513          	add	a0,a0,164 # 10a4 <delay+0x17c>
 4a0:	00001097          	auipc	ra,0x1
 4a4:	9dc080e7          	jalr	-1572(ra) # e7c <uart_send_str>
#   }
# 
#   // print exits from current location
#   add_list_sep = FALSE;
#   uart_send_str("exits: ");
 4a8:	00001537          	lui	a0,0x1
 4ac:	0b050513          	add	a0,a0,176 # 10b0 <delay+0x188>
 4b0:	008484b3          	add	s1,s1,s0
 4b4:	00002437          	lui	s0,0x2
 4b8:	00001097          	auipc	ra,0x1
 4bc:	9c4080e7          	jalr	-1596(ra) # e7c <uart_send_str>
#   for (unsigned i = 0; i < LOCATION_MAX_EXITS; i++) {
 4c0:	5b040413          	add	s0,s0,1456 # 25b0 <exit_names>
 4c4:	01840913          	add	s2,s0,24
#   add_list_sep = FALSE;
 4c8:	00000793          	li	a5,0
#     if (!loc->exits[i])
#       continue;
#     if (add_list_sep) {
#       uart_send_str(", ");
 4cc:	000019b7          	lui	s3,0x1
#     if (!loc->exits[i])
 4d0:	08c4c703          	lbu	a4,140(s1)
 4d4:	02070263          	beqz	a4,4f8 <print_location+0x1b0>
#     if (add_list_sep) {
 4d8:	00078863          	beqz	a5,4e8 <print_location+0x1a0>
#       uart_send_str(", ");
 4dc:	0a098513          	add	a0,s3,160 # 10a0 <delay+0x178>
 4e0:	00001097          	auipc	ra,0x1
 4e4:	99c080e7          	jalr	-1636(ra) # e7c <uart_send_str>
#     } else {
#       add_list_sep = TRUE;
#     }
#     uart_send_str(exit_names[i]);
 4e8:	00042503          	lw	a0,0(s0)
 4ec:	00001097          	auipc	ra,0x1
 4f0:	990080e7          	jalr	-1648(ra) # e7c <uart_send_str>
 4f4:	00100793          	li	a5,1
#   for (unsigned i = 0; i < LOCATION_MAX_EXITS; i++) {
 4f8:	00440413          	add	s0,s0,4
 4fc:	00148493          	add	s1,s1,1
 500:	fd2418e3          	bne	s0,s2,4d0 <print_location+0x188>
#   }
#   if (!add_list_sep) {
 504:	00079a63          	bnez	a5,518 <print_location+0x1d0>
#     uart_send_str("none");
 508:	00001537          	lui	a0,0x1
 50c:	0b850513          	add	a0,a0,184 # 10b8 <delay+0x190>
 510:	00001097          	auipc	ra,0x1
 514:	96c080e7          	jalr	-1684(ra) # e7c <uart_send_str>
#   }
#   uart_send_str("\r\n");
# }
 518:	02812403          	lw	s0,40(sp)
 51c:	02c12083          	lw	ra,44(sp)
 520:	02412483          	lw	s1,36(sp)
 524:	02012903          	lw	s2,32(sp)
 528:	01c12983          	lw	s3,28(sp)
 52c:	01412a83          	lw	s5,20(sp)
 530:	01012b03          	lw	s6,16(sp)
 534:	00c12b83          	lw	s7,12(sp)
 538:	00812c03          	lw	s8,8(sp)
 53c:	00412c83          	lw	s9,4(sp)
#   uart_send_str("\r\n");
 540:	08ca0513          	add	a0,s4,140
# }
 544:	01812a03          	lw	s4,24(sp)
 548:	03010113          	add	sp,sp,48
#   uart_send_str("\r\n");
 54c:	00001317          	auipc	t1,0x1
 550:	93030067          	jr	-1744(t1) # e7c <uart_send_str>
#       uart_send_str(", ");
 554:	0a0c0513          	add	a0,s8,160
 558:	00001097          	auipc	ra,0x1
 55c:	924080e7          	jalr	-1756(ra) # e7c <uart_send_str>
 560:	e95ff06f          	j	3f4 <print_location+0xac>
#     uart_send_str("nothing");
 564:	00001537          	lui	a0,0x1
 568:	0c050513          	add	a0,a0,192 # 10c0 <delay+0x198>
 56c:	00001097          	auipc	ra,0x1
 570:	910080e7          	jalr	-1776(ra) # e7c <uart_send_str>
 574:	ea9ff06f          	j	41c <print_location+0xd4>

00000578 <action_inventory>:
# 
# void action_inventory(entity_id eid) {
 578:	fe010113          	add	sp,sp,-32
 57c:	00912a23          	sw	s1,20(sp)
 580:	00050493          	mv	s1,a0
#   uart_send_str("u have: ");
 584:	00001537          	lui	a0,0x1
# void action_inventory(entity_id eid) {
 588:	00812c23          	sw	s0,24(sp)
#   uart_send_str("u have: ");
 58c:	0c850513          	add	a0,a0,200 # 10c8 <delay+0x1a0>
#   bool add_list_sep = FALSE;
#   const object_id *lso = entities[eid].objects;
 590:	00249413          	sll	s0,s1,0x2
 594:	00940433          	add	s0,s0,s1
# void action_inventory(entity_id eid) {
 598:	00112e23          	sw	ra,28(sp)
 59c:	01212823          	sw	s2,16(sp)
 5a0:	01312623          	sw	s3,12(sp)
 5a4:	01412423          	sw	s4,8(sp)
 5a8:	01512223          	sw	s5,4(sp)
#   uart_send_str("u have: ");
 5ac:	00001097          	auipc	ra,0x1
 5b0:	8d0080e7          	jalr	-1840(ra) # e7c <uart_send_str>
#   const object_id *lso = entities[eid].objects;
 5b4:	00341413          	sll	s0,s0,0x3
 5b8:	000027b7          	lui	a5,0x2
 5bc:	00540413          	add	s0,s0,5
 5c0:	25478793          	add	a5,a5,596 # 2254 <entities>
 5c4:	00f40433          	add	s0,s0,a5
#   for (unsigned i = 0; i < ENTITY_MAX_OBJECTS; i++) {
#     const object_id oid = lso[i];
 5c8:	00044483          	lbu	s1,0(s0)
#     if (!oid)
 5cc:	08048063          	beqz	s1,64c <action_inventory+0xd4>
#     if (add_list_sep) {
#       uart_send_str(", ");
#     } else {
#       add_list_sep = TRUE;
#     }
#     uart_send_str(objects[oid].name);
 5d0:	000029b7          	lui	s3,0x2
#   for (unsigned i = 0; i < ENTITY_MAX_OBJECTS; i++) {
 5d4:	00000913          	li	s2,0
#     uart_send_str(objects[oid].name);
 5d8:	24498993          	add	s3,s3,580 # 2244 <objects>
#   for (unsigned i = 0; i < ENTITY_MAX_OBJECTS; i++) {
 5dc:	02000a13          	li	s4,32
#       uart_send_str(", ");
 5e0:	00001ab7          	lui	s5,0x1
#     uart_send_str(objects[oid].name);
 5e4:	00249493          	sll	s1,s1,0x2
 5e8:	009984b3          	add	s1,s3,s1
 5ec:	0004a503          	lw	a0,0(s1)
#   for (unsigned i = 0; i < ENTITY_MAX_OBJECTS; i++) {
 5f0:	00190913          	add	s2,s2,1
#     uart_send_str(objects[oid].name);
 5f4:	00001097          	auipc	ra,0x1
 5f8:	888080e7          	jalr	-1912(ra) # e7c <uart_send_str>
#   for (unsigned i = 0; i < ENTITY_MAX_OBJECTS; i++) {
 5fc:	01490863          	beq	s2,s4,60c <action_inventory+0x94>
#     const object_id oid = lso[i];
 600:	012407b3          	add	a5,s0,s2
 604:	0007c483          	lbu	s1,0(a5)
#     if (!oid)
 608:	02049a63          	bnez	s1,63c <action_inventory+0xc4>
#   }
#   if (!add_list_sep) {
#     uart_send_str("nothing");
#   }
#   uart_send_str("\r\n");
# }
 60c:	01812403          	lw	s0,24(sp)
 610:	01c12083          	lw	ra,28(sp)
 614:	01412483          	lw	s1,20(sp)
 618:	01012903          	lw	s2,16(sp)
 61c:	00c12983          	lw	s3,12(sp)
 620:	00812a03          	lw	s4,8(sp)
 624:	00412a83          	lw	s5,4(sp)
#   uart_send_str("\r\n");
 628:	00001537          	lui	a0,0x1
 62c:	08c50513          	add	a0,a0,140 # 108c <delay+0x164>
# }
 630:	02010113          	add	sp,sp,32
#   uart_send_str("\r\n");
 634:	00001317          	auipc	t1,0x1
 638:	84830067          	jr	-1976(t1) # e7c <uart_send_str>
#       uart_send_str(", ");
 63c:	0a0a8513          	add	a0,s5,160 # 10a0 <delay+0x178>
 640:	00001097          	auipc	ra,0x1
 644:	83c080e7          	jalr	-1988(ra) # e7c <uart_send_str>
 648:	f9dff06f          	j	5e4 <action_inventory+0x6c>
#     uart_send_str("nothing");
 64c:	00001537          	lui	a0,0x1
 650:	0c050513          	add	a0,a0,192 # 10c0 <delay+0x198>
 654:	00001097          	auipc	ra,0x1
 658:	828080e7          	jalr	-2008(ra) # e7c <uart_send_str>
 65c:	fb1ff06f          	j	60c <action_inventory+0x94>

00000660 <remove_object_from_list_by_index>:
# 
# void remove_object_from_list_by_index(object_id list[], unsigned ix) {
#   object_id *ptr = &list[ix];
 660:	00b50533          	add	a0,a0,a1
#   while (1) {
#     *ptr = *(ptr + 1);
 664:	00154783          	lbu	a5,1(a0)
 668:	00f50023          	sb	a5,0(a0)
#     if (!*ptr)
 66c:	00078663          	beqz	a5,678 <remove_object_from_list_by_index+0x18>
#       return;
#     ptr++;
 670:	00150513          	add	a0,a0,1
#     *ptr = *(ptr + 1);
 674:	ff1ff06f          	j	664 <remove_object_from_list_by_index+0x4>
#   }
# }
 678:	00008067          	ret

0000067c <add_object_to_list>:
# 
# bool add_object_to_list(object_id list[], unsigned list_len, object_id oid) {
#   // list_len - 1 since last element has to be 0
#   for (unsigned i = 0; i < list_len - 1; i++) {
 67c:	00000793          	li	a5,0
 680:	fff58593          	add	a1,a1,-1
 684:	02b7e663          	bltu	a5,a1,6b0 <add_object_to_list+0x34>
#       continue;
#     list[i] = oid;
#     list[i + 1] = 0;
#     return TRUE;
#   }
#   uart_send_str("space full\r\n");
 688:	00001537          	lui	a0,0x1
# bool add_object_to_list(object_id list[], unsigned list_len, object_id oid) {
 68c:	ff010113          	add	sp,sp,-16
#   uart_send_str("space full\r\n");
 690:	0d450513          	add	a0,a0,212 # 10d4 <delay+0x1ac>
# bool add_object_to_list(object_id list[], unsigned list_len, object_id oid) {
 694:	00112623          	sw	ra,12(sp)
#   uart_send_str("space full\r\n");
 698:	00000097          	auipc	ra,0x0
 69c:	7e4080e7          	jalr	2020(ra) # e7c <uart_send_str>
#   return FALSE;
# }
 6a0:	00c12083          	lw	ra,12(sp)
#   return FALSE;
 6a4:	00000513          	li	a0,0
# }
 6a8:	01010113          	add	sp,sp,16
 6ac:	00008067          	ret
#   for (unsigned i = 0; i < list_len - 1; i++) {
 6b0:	00178713          	add	a4,a5,1
#     if (list[i])
 6b4:	00f507b3          	add	a5,a0,a5
 6b8:	0007c683          	lbu	a3,0(a5)
 6bc:	00069c63          	bnez	a3,6d4 <add_object_to_list+0x58>
#     list[i + 1] = 0;
 6c0:	00e50533          	add	a0,a0,a4
#     list[i] = oid;
 6c4:	00c78023          	sb	a2,0(a5)
#     list[i + 1] = 0;
 6c8:	00050023          	sb	zero,0(a0)
#     return TRUE;
 6cc:	00100513          	li	a0,1
# }
 6d0:	00008067          	ret
#   for (unsigned i = 0; i < list_len - 1; i++) {
 6d4:	00070793          	mv	a5,a4
 6d8:	fadff06f          	j	684 <add_object_to_list+0x8>

000006dc <add_entity_to_list>:
# 
# bool add_entity_to_list(entity_id list[], unsigned list_len, entity_id eid) {
#   // list_len - 1 since last element has to be 0
#   for (unsigned i = 0; i < list_len - 1; i++) {
 6dc:	00000793          	li	a5,0
 6e0:	fff58593          	add	a1,a1,-1
 6e4:	02b7e663          	bltu	a5,a1,710 <add_entity_to_list+0x34>
#       continue;
#     list[i] = eid;
#     list[i + 1] = 0;
#     return TRUE;
#   }
#   uart_send_str("location full\r\n");
 6e8:	00001537          	lui	a0,0x1
# bool add_entity_to_list(entity_id list[], unsigned list_len, entity_id eid) {
 6ec:	ff010113          	add	sp,sp,-16
#   uart_send_str("location full\r\n");
 6f0:	0e450513          	add	a0,a0,228 # 10e4 <delay+0x1bc>
# bool add_entity_to_list(entity_id list[], unsigned list_len, entity_id eid) {
 6f4:	00112623          	sw	ra,12(sp)
#   uart_send_str("location full\r\n");
 6f8:	00000097          	auipc	ra,0x0
 6fc:	784080e7          	jalr	1924(ra) # e7c <uart_send_str>
#   return FALSE;
# }
 700:	00c12083          	lw	ra,12(sp)
#   return FALSE;
 704:	00000513          	li	a0,0
# }
 708:	01010113          	add	sp,sp,16
 70c:	00008067          	ret
#   for (unsigned i = 0; i < list_len - 1; i++) {
 710:	00178713          	add	a4,a5,1
#     if (list[i])
 714:	00f507b3          	add	a5,a0,a5
 718:	0007c683          	lbu	a3,0(a5)
 71c:	00069c63          	bnez	a3,734 <add_entity_to_list+0x58>
#     list[i + 1] = 0;
 720:	00e50533          	add	a0,a0,a4
#     list[i] = eid;
 724:	00c78023          	sb	a2,0(a5)
#     list[i + 1] = 0;
 728:	00050023          	sb	zero,0(a0)
#     return TRUE;
 72c:	00100513          	li	a0,1
# }
 730:	00008067          	ret
#   for (unsigned i = 0; i < list_len - 1; i++) {
 734:	00070793          	mv	a5,a4
 738:	fadff06f          	j	6e4 <add_entity_to_list+0x8>

0000073c <remove_entity_from_list>:
# 
# void remove_entity_from_list(entity_id list[], unsigned list_len,
#                              entity_id eid) {
#   // list_len - 1 since last element has to be 0
#   for (unsigned i = 0; i < list_len - 1; i++) {
 73c:	fff58813          	add	a6,a1,-1
 740:	00a585b3          	add	a1,a1,a0
 744:	00000713          	li	a4,0
 748:	fff58593          	add	a1,a1,-1
 74c:	01076a63          	bltu	a4,a6,760 <remove_entity_from_list+0x24>
#       list[j] = list[j + 1];
#       if (!list[j])
#         return;
#     }
#   }
#   uart_send_str("entity not here\r\n");
 750:	00001537          	lui	a0,0x1
 754:	0f450513          	add	a0,a0,244 # 10f4 <delay+0x1cc>
 758:	00000317          	auipc	t1,0x0
 75c:	72430067          	jr	1828(t1) # e7c <uart_send_str>
#     if (list[i] != eid)
 760:	00e507b3          	add	a5,a0,a4
 764:	0007c683          	lbu	a3,0(a5)
 768:	00c68e63          	beq	a3,a2,784 <remove_entity_from_list+0x48>
#   for (unsigned i = 0; i < list_len - 1; i++) {
 76c:	00170713          	add	a4,a4,1
 770:	fddff06f          	j	74c <remove_entity_from_list+0x10>
#       list[j] = list[j + 1];
 774:	0017c683          	lbu	a3,1(a5)
#       if (!list[j])
 778:	00178793          	add	a5,a5,1
#       list[j] = list[j + 1];
 77c:	fed78fa3          	sb	a3,-1(a5)
#       if (!list[j])
 780:	00068663          	beqz	a3,78c <remove_entity_from_list+0x50>
#     for (unsigned j = i; j < list_len - 1; j++) {
 784:	feb798e3          	bne	a5,a1,774 <remove_entity_from_list+0x38>
 788:	fe5ff06f          	j	76c <remove_entity_from_list+0x30>
# }
 78c:	00008067          	ret

00000790 <remove_entity_from_list_by_index>:
# 
# void remove_entity_from_list_by_index(entity_id list[], unsigned ix) {
 790:	00000317          	auipc	t1,0x0
 794:	ed030067          	jr	-304(t1) # 660 <remove_object_from_list_by_index>

00000798 <action_take>:
#       return;
#     ptr++;
#   }
# }
# 
# void action_take(entity_id eid, object_name obj) {
 798:	fd010113          	add	sp,sp,-48
 79c:	01312e23          	sw	s3,28(sp)
 7a0:	00050993          	mv	s3,a0
 7a4:	02912223          	sw	s1,36(sp)
#   entity *ent = &entities[eid];
#   object_id *lso = locations[ent->location].objects;
 7a8:	00299493          	sll	s1,s3,0x2
 7ac:	00002537          	lui	a0,0x2
 7b0:	01348733          	add	a4,s1,s3
 7b4:	25450793          	add	a5,a0,596 # 2254 <entities>
 7b8:	00371713          	sll	a4,a4,0x3
 7bc:	00e787b3          	add	a5,a5,a4
 7c0:	0047c783          	lbu	a5,4(a5)
# void action_take(entity_id eid, object_name obj) {
 7c4:	02812423          	sw	s0,40(sp)
 7c8:	01612823          	sw	s6,16(sp)
#   object_id *lso = locations[ent->location].objects;
 7cc:	00379413          	sll	s0,a5,0x3
 7d0:	00f40433          	add	s0,s0,a5
 7d4:	00241413          	sll	s0,s0,0x2
 7d8:	00f40433          	add	s0,s0,a5
 7dc:	00241413          	sll	s0,s0,0x2
 7e0:	000027b7          	lui	a5,0x2
 7e4:	00440413          	add	s0,s0,4
 7e8:	2cc78793          	add	a5,a5,716 # 22cc <locations>
#   for (unsigned i = 0; i < LOCATION_MAX_OBJECTS; i++) {
#     const object_id oid = lso[i];
#     if (!oid)
#       break;
#     if (!strings_equal(objects[oid].name, obj))
 7ec:	00002b37          	lui	s6,0x2
# void action_take(entity_id eid, object_name obj) {
 7f0:	03212023          	sw	s2,32(sp)
 7f4:	01412c23          	sw	s4,24(sp)
 7f8:	01512a23          	sw	s5,20(sp)
 7fc:	02112623          	sw	ra,44(sp)
 800:	00058a13          	mv	s4,a1
#   object_id *lso = locations[ent->location].objects;
 804:	00f40433          	add	s0,s0,a5
#   for (unsigned i = 0; i < LOCATION_MAX_OBJECTS; i++) {
 808:	00000913          	li	s2,0
 80c:	25450a93          	add	s5,a0,596
#     if (!strings_equal(objects[oid].name, obj))
 810:	244b0b13          	add	s6,s6,580 # 2244 <objects>
#     const object_id oid = lso[i];
 814:	012407b3          	add	a5,s0,s2
 818:	0007c603          	lbu	a2,0(a5)
#     if (!oid)
 81c:	02060a63          	beqz	a2,850 <action_take+0xb8>
#     if (!strings_equal(objects[oid].name, obj))
 820:	00261793          	sll	a5,a2,0x2
 824:	00fb07b3          	add	a5,s6,a5
 828:	0007a503          	lw	a0,0(a5)
 82c:	000a0593          	mv	a1,s4
 830:	00c12623          	sw	a2,12(sp)
 834:	00000097          	auipc	ra,0x0
 838:	618080e7          	jalr	1560(ra) # e4c <strings_equal>
 83c:	00c12603          	lw	a2,12(sp)
 840:	04051863          	bnez	a0,890 <action_take+0xf8>
#   for (unsigned i = 0; i < LOCATION_MAX_OBJECTS; i++) {
 844:	00190913          	add	s2,s2,1
 848:	08000793          	li	a5,128
 84c:	fcf914e3          	bne	s2,a5,814 <action_take+0x7c>
#     if (add_object_to_list(ent->objects, ENTITY_MAX_OBJECTS, oid)) {
#       remove_object_from_list_by_index(lso, i);
#     }
#     return;
#   }
#   uart_send_str(obj);
 850:	000a0513          	mv	a0,s4
 854:	00000097          	auipc	ra,0x0
 858:	628080e7          	jalr	1576(ra) # e7c <uart_send_str>
#   uart_send_str(" not here\r\n\r\n");
# }
 85c:	02812403          	lw	s0,40(sp)
 860:	02c12083          	lw	ra,44(sp)
 864:	02412483          	lw	s1,36(sp)
 868:	02012903          	lw	s2,32(sp)
 86c:	01c12983          	lw	s3,28(sp)
 870:	01812a03          	lw	s4,24(sp)
 874:	01412a83          	lw	s5,20(sp)
 878:	01012b03          	lw	s6,16(sp)
#   uart_send_str(" not here\r\n\r\n");
 87c:	00001537          	lui	a0,0x1
 880:	10850513          	add	a0,a0,264 # 1108 <delay+0x1e0>
# }
 884:	03010113          	add	sp,sp,48
#   uart_send_str(" not here\r\n\r\n");
 888:	00000317          	auipc	t1,0x0
 88c:	5f430067          	jr	1524(t1) # e7c <uart_send_str>
#     if (add_object_to_list(ent->objects, ENTITY_MAX_OBJECTS, oid)) {
 890:	01348533          	add	a0,s1,s3
 894:	00351513          	sll	a0,a0,0x3
 898:	00550513          	add	a0,a0,5
 89c:	02000593          	li	a1,32
 8a0:	00aa8533          	add	a0,s5,a0
 8a4:	00000097          	auipc	ra,0x0
 8a8:	dd8080e7          	jalr	-552(ra) # 67c <add_object_to_list>
 8ac:	02050c63          	beqz	a0,8e4 <action_take+0x14c>
#       remove_object_from_list_by_index(lso, i);
 8b0:	00040513          	mv	a0,s0
# }
 8b4:	02812403          	lw	s0,40(sp)
 8b8:	02c12083          	lw	ra,44(sp)
 8bc:	02412483          	lw	s1,36(sp)
 8c0:	01c12983          	lw	s3,28(sp)
 8c4:	01812a03          	lw	s4,24(sp)
 8c8:	01412a83          	lw	s5,20(sp)
 8cc:	01012b03          	lw	s6,16(sp)
#       remove_object_from_list_by_index(lso, i);
 8d0:	00090593          	mv	a1,s2
# }
 8d4:	02012903          	lw	s2,32(sp)
 8d8:	03010113          	add	sp,sp,48
#       remove_object_from_list_by_index(lso, i);
 8dc:	00000317          	auipc	t1,0x0
 8e0:	d8430067          	jr	-636(t1) # 660 <remove_object_from_list_by_index>
# }
 8e4:	02c12083          	lw	ra,44(sp)
 8e8:	02812403          	lw	s0,40(sp)
 8ec:	02412483          	lw	s1,36(sp)
 8f0:	02012903          	lw	s2,32(sp)
 8f4:	01c12983          	lw	s3,28(sp)
 8f8:	01812a03          	lw	s4,24(sp)
 8fc:	01412a83          	lw	s5,20(sp)
 900:	01012b03          	lw	s6,16(sp)
 904:	03010113          	add	sp,sp,48
 908:	00008067          	ret

0000090c <action_drop>:
# 
# void action_drop(entity_id eid, object_name obj) {
 90c:	fd010113          	add	sp,sp,-48
 910:	03212023          	sw	s2,32(sp)
#   entity *ent = &entities[eid];
#   object_id *lso = ent->objects;
 914:	00251913          	sll	s2,a0,0x2
# void action_drop(entity_id eid, object_name obj) {
 918:	02812423          	sw	s0,40(sp)
#   object_id *lso = ent->objects;
 91c:	00a90433          	add	s0,s2,a0
 920:	000027b7          	lui	a5,0x2
 924:	00341413          	sll	s0,s0,0x3
# void action_drop(entity_id eid, object_name obj) {
 928:	01612823          	sw	s6,16(sp)
#   object_id *lso = ent->objects;
 92c:	00540413          	add	s0,s0,5
 930:	25478713          	add	a4,a5,596 # 2254 <entities>
#   for (unsigned i = 0; i < ENTITY_MAX_OBJECTS; i++) {
#     const object_id oid = lso[i];
#     if (!oid)
#       break;
#     if (!strings_equal(objects[oid].name, obj))
 934:	00002b37          	lui	s6,0x2
# void action_drop(entity_id eid, object_name obj) {
 938:	02912223          	sw	s1,36(sp)
 93c:	01312e23          	sw	s3,28(sp)
 940:	01412c23          	sw	s4,24(sp)
 944:	01512a23          	sw	s5,20(sp)
 948:	02112623          	sw	ra,44(sp)
 94c:	00050a13          	mv	s4,a0
 950:	00058a93          	mv	s5,a1
#   object_id *lso = ent->objects;
 954:	00e40433          	add	s0,s0,a4
#   for (unsigned i = 0; i < ENTITY_MAX_OBJECTS; i++) {
 958:	00000993          	li	s3,0
 95c:	25478493          	add	s1,a5,596
#     if (!strings_equal(objects[oid].name, obj))
 960:	244b0b13          	add	s6,s6,580 # 2244 <objects>
#     const object_id oid = lso[i];
 964:	013407b3          	add	a5,s0,s3
 968:	0007c603          	lbu	a2,0(a5)
#     if (!oid)
 96c:	02060a63          	beqz	a2,9a0 <action_drop+0x94>
#     if (!strings_equal(objects[oid].name, obj))
 970:	00261793          	sll	a5,a2,0x2
 974:	00fb07b3          	add	a5,s6,a5
 978:	0007a503          	lw	a0,0(a5)
 97c:	000a8593          	mv	a1,s5
 980:	00c12623          	sw	a2,12(sp)
 984:	00000097          	auipc	ra,0x0
 988:	4c8080e7          	jalr	1224(ra) # e4c <strings_equal>
 98c:	00c12603          	lw	a2,12(sp)
 990:	06051063          	bnez	a0,9f0 <action_drop+0xe4>
#   for (unsigned i = 0; i < ENTITY_MAX_OBJECTS; i++) {
 994:	00198993          	add	s3,s3,1
 998:	02000793          	li	a5,32
 99c:	fcf994e3          	bne	s3,a5,964 <action_drop+0x58>
#                            LOCATION_MAX_OBJECTS, oid)) {
#       remove_object_from_list_by_index(lso, i);
#     }
#     return;
#   }
#   uart_send_str("u don't have ");
 9a0:	00001537          	lui	a0,0x1
 9a4:	11850513          	add	a0,a0,280 # 1118 <delay+0x1f0>
 9a8:	00000097          	auipc	ra,0x0
 9ac:	4d4080e7          	jalr	1236(ra) # e7c <uart_send_str>
#   uart_send_str(obj);
 9b0:	000a8513          	mv	a0,s5
 9b4:	00000097          	auipc	ra,0x0
 9b8:	4c8080e7          	jalr	1224(ra) # e7c <uart_send_str>
#   uart_send_str("\r\n\r\n");
# }
 9bc:	02812403          	lw	s0,40(sp)
 9c0:	02c12083          	lw	ra,44(sp)
 9c4:	02412483          	lw	s1,36(sp)
 9c8:	02012903          	lw	s2,32(sp)
 9cc:	01c12983          	lw	s3,28(sp)
 9d0:	01812a03          	lw	s4,24(sp)
 9d4:	01412a83          	lw	s5,20(sp)
 9d8:	01012b03          	lw	s6,16(sp)
#   uart_send_str("\r\n\r\n");
 9dc:	00001537          	lui	a0,0x1
 9e0:	f7050513          	add	a0,a0,-144 # f70 <delay+0x48>
# }
 9e4:	03010113          	add	sp,sp,48
#   uart_send_str("\r\n\r\n");
 9e8:	00000317          	auipc	t1,0x0
 9ec:	49430067          	jr	1172(t1) # e7c <uart_send_str>
#     if (add_object_to_list(locations[ent->location].objects,
 9f0:	01490933          	add	s2,s2,s4
 9f4:	00391913          	sll	s2,s2,0x3
 9f8:	012487b3          	add	a5,s1,s2
 9fc:	0047c703          	lbu	a4,4(a5)
 a00:	00002537          	lui	a0,0x2
 a04:	2cc50513          	add	a0,a0,716 # 22cc <locations>
 a08:	00371793          	sll	a5,a4,0x3
 a0c:	00e787b3          	add	a5,a5,a4
 a10:	00279793          	sll	a5,a5,0x2
 a14:	00e787b3          	add	a5,a5,a4
 a18:	00279793          	sll	a5,a5,0x2
 a1c:	00478793          	add	a5,a5,4
 a20:	08000593          	li	a1,128
 a24:	00f50533          	add	a0,a0,a5
 a28:	00000097          	auipc	ra,0x0
 a2c:	c54080e7          	jalr	-940(ra) # 67c <add_object_to_list>
 a30:	02050c63          	beqz	a0,a68 <action_drop+0x15c>
#       remove_object_from_list_by_index(lso, i);
 a34:	00040513          	mv	a0,s0
# }
 a38:	02812403          	lw	s0,40(sp)
 a3c:	02c12083          	lw	ra,44(sp)
 a40:	02412483          	lw	s1,36(sp)
 a44:	02012903          	lw	s2,32(sp)
 a48:	01812a03          	lw	s4,24(sp)
 a4c:	01412a83          	lw	s5,20(sp)
 a50:	01012b03          	lw	s6,16(sp)
#       remove_object_from_list_by_index(lso, i);
 a54:	00098593          	mv	a1,s3
# }
 a58:	01c12983          	lw	s3,28(sp)
 a5c:	03010113          	add	sp,sp,48
#       remove_object_from_list_by_index(lso, i);
 a60:	00000317          	auipc	t1,0x0
 a64:	c0030067          	jr	-1024(t1) # 660 <remove_object_from_list_by_index>
# }
 a68:	02c12083          	lw	ra,44(sp)
 a6c:	02812403          	lw	s0,40(sp)
 a70:	02412483          	lw	s1,36(sp)
 a74:	02012903          	lw	s2,32(sp)
 a78:	01c12983          	lw	s3,28(sp)
 a7c:	01812a03          	lw	s4,24(sp)
 a80:	01412a83          	lw	s5,20(sp)
 a84:	01012b03          	lw	s6,16(sp)
 a88:	03010113          	add	sp,sp,48
 a8c:	00008067          	ret

00000a90 <action_go>:
# 
# void action_go(entity_id eid, direction dir) {
 a90:	fd010113          	add	sp,sp,-48
#   entity *ent = &entities[eid];
#   location *loc = &locations[ent->location];
 a94:	00251793          	sll	a5,a0,0x2
# void action_go(entity_id eid, direction dir) {
 a98:	02912223          	sw	s1,36(sp)
#   location *loc = &locations[ent->location];
 a9c:	00a787b3          	add	a5,a5,a0
 aa0:	000024b7          	lui	s1,0x2
 aa4:	00379793          	sll	a5,a5,0x3
 aa8:	25448493          	add	s1,s1,596 # 2254 <entities>
 aac:	00f484b3          	add	s1,s1,a5
 ab0:	0044c783          	lbu	a5,4(s1)
# void action_go(entity_id eid, direction dir) {
 ab4:	02812423          	sw	s0,40(sp)
 ab8:	01312e23          	sw	s3,28(sp)
#   const location_id to = loc->exits[dir];
 abc:	00379413          	sll	s0,a5,0x3
 ac0:	00f40433          	add	s0,s0,a5
 ac4:	00241413          	sll	s0,s0,0x2
 ac8:	00f40433          	add	s0,s0,a5
 acc:	000029b7          	lui	s3,0x2
 ad0:	2cc98993          	add	s3,s3,716 # 22cc <locations>
 ad4:	00241413          	sll	s0,s0,0x2
 ad8:	008987b3          	add	a5,s3,s0
 adc:	00b787b3          	add	a5,a5,a1
# void action_go(entity_id eid, direction dir) {
 ae0:	03212023          	sw	s2,32(sp)
#   const location_id to = loc->exits[dir];
 ae4:	08c7c903          	lbu	s2,140(a5)
# void action_go(entity_id eid, direction dir) {
 ae8:	02112623          	sw	ra,44(sp)
#   if (!to) {
 aec:	02091663          	bnez	s2,b18 <action_go+0x88>
#   }
#   if (add_entity_to_list(locations[to].entities, LOCATION_MAX_ENTITIES, eid)) {
#     remove_entity_from_list(loc->entities, LOCATION_MAX_ENTITIES, eid);
#     ent->location = to;
#   }
# }
 af0:	02812403          	lw	s0,40(sp)
 af4:	02c12083          	lw	ra,44(sp)
 af8:	02412483          	lw	s1,36(sp)
 afc:	02012903          	lw	s2,32(sp)
 b00:	01c12983          	lw	s3,28(sp)
#     uart_send_str("cannot go there\r\n\r\n");
 b04:	00001537          	lui	a0,0x1
 b08:	12850513          	add	a0,a0,296 # 1128 <delay+0x200>
# }
 b0c:	03010113          	add	sp,sp,48
#     uart_send_str("cannot go there\r\n\r\n");
 b10:	00000317          	auipc	t1,0x0
 b14:	36c30067          	jr	876(t1) # e7c <uart_send_str>
#   if (add_entity_to_list(locations[to].entities, LOCATION_MAX_ENTITIES, eid)) {
 b18:	00391793          	sll	a5,s2,0x3
 b1c:	012787b3          	add	a5,a5,s2
 b20:	00279793          	sll	a5,a5,0x2
 b24:	012787b3          	add	a5,a5,s2
 b28:	00279793          	sll	a5,a5,0x2
 b2c:	08478793          	add	a5,a5,132
 b30:	00050613          	mv	a2,a0
 b34:	00a12623          	sw	a0,12(sp)
 b38:	00800593          	li	a1,8
 b3c:	00f98533          	add	a0,s3,a5
 b40:	00000097          	auipc	ra,0x0
 b44:	b9c080e7          	jalr	-1124(ra) # 6dc <add_entity_to_list>
 b48:	00c12603          	lw	a2,12(sp)
 b4c:	00050e63          	beqz	a0,b68 <action_go+0xd8>
#     remove_entity_from_list(loc->entities, LOCATION_MAX_ENTITIES, eid);
 b50:	08440413          	add	s0,s0,132
 b54:	00800593          	li	a1,8
 b58:	00898533          	add	a0,s3,s0
 b5c:	00000097          	auipc	ra,0x0
 b60:	be0080e7          	jalr	-1056(ra) # 73c <remove_entity_from_list>
#     ent->location = to;
 b64:	01248223          	sb	s2,4(s1)
# }
 b68:	02c12083          	lw	ra,44(sp)
 b6c:	02812403          	lw	s0,40(sp)
 b70:	02412483          	lw	s1,36(sp)
 b74:	02012903          	lw	s2,32(sp)
 b78:	01c12983          	lw	s3,28(sp)
 b7c:	03010113          	add	sp,sp,48
 b80:	00008067          	ret

00000b84 <action_give>:
# 
# void action_give(entity_id eid, object_name obj, entity_name to_ent) {
 b84:	fc010113          	add	sp,sp,-64
 b88:	02912a23          	sw	s1,52(sp)
#   entity *ent = &entities[eid];
#   const location *loc = &locations[ent->location];
 b8c:	00251493          	sll	s1,a0,0x2
# void action_give(entity_id eid, object_name obj, entity_name to_ent) {
 b90:	03412423          	sw	s4,40(sp)
#   const location *loc = &locations[ent->location];
 b94:	00a48733          	add	a4,s1,a0
 b98:	00002a37          	lui	s4,0x2
 b9c:	254a0793          	add	a5,s4,596 # 2254 <entities>
 ba0:	00371713          	sll	a4,a4,0x3
 ba4:	00e787b3          	add	a5,a5,a4
 ba8:	0047c783          	lbu	a5,4(a5)
# void action_give(entity_id eid, object_name obj, entity_name to_ent) {
 bac:	02812c23          	sw	s0,56(sp)
 bb0:	01912a23          	sw	s9,20(sp)
 bb4:	00379413          	sll	s0,a5,0x3
 bb8:	00f40433          	add	s0,s0,a5
 bbc:	00241413          	sll	s0,s0,0x2
 bc0:	00f40433          	add	s0,s0,a5
 bc4:	00241413          	sll	s0,s0,0x2
#   const entity_id *lse = loc->entities;
#   for (unsigned i = 0; i < LOCATION_MAX_ENTITIES; i++) {
#     if (!lse[i])
 bc8:	00002cb7          	lui	s9,0x2
# void action_give(entity_id eid, object_name obj, entity_name to_ent) {
 bcc:	03212823          	sw	s2,48(sp)
 bd0:	03512223          	sw	s5,36(sp)
 bd4:	03612023          	sw	s6,32(sp)
 bd8:	01812c23          	sw	s8,24(sp)
 bdc:	02112e23          	sw	ra,60(sp)
 be0:	03312623          	sw	s3,44(sp)
 be4:	01712e23          	sw	s7,28(sp)
 be8:	00050a93          	mv	s5,a0
 bec:	00058913          	mv	s2,a1
 bf0:	00060b13          	mv	s6,a2
 bf4:	08440413          	add	s0,s0,132
#   for (unsigned i = 0; i < LOCATION_MAX_ENTITIES; i++) {
 bf8:	00000c13          	li	s8,0
 bfc:	254a0a13          	add	s4,s4,596
#     if (!lse[i])
 c00:	2ccc8c93          	add	s9,s9,716 # 22cc <locations>
 c04:	018407b3          	add	a5,s0,s8
 c08:	019787b3          	add	a5,a5,s9
 c0c:	0007cb83          	lbu	s7,0(a5)
 c10:	020b8a63          	beqz	s7,c44 <action_give+0xc0>
#       break;
#     entity *to = &entities[lse[i]];
#     if (!strings_equal(to->name, to_ent))
 c14:	002b9993          	sll	s3,s7,0x2
 c18:	017987b3          	add	a5,s3,s7
 c1c:	00379793          	sll	a5,a5,0x3
 c20:	00fa07b3          	add	a5,s4,a5
 c24:	0007a503          	lw	a0,0(a5)
 c28:	000b0593          	mv	a1,s6
 c2c:	00000097          	auipc	ra,0x0
 c30:	220080e7          	jalr	544(ra) # e4c <strings_equal>
 c34:	02051463          	bnez	a0,c5c <action_give+0xd8>
#   for (unsigned i = 0; i < LOCATION_MAX_ENTITIES; i++) {
 c38:	001c0c13          	add	s8,s8,1
 c3c:	00800793          	li	a5,8
 c40:	fcfc12e3          	bne	s8,a5,c04 <action_give+0x80>
#     }
#     uart_send_str(obj);
#     uart_send_str(" not in inventory\r\n\r\n");
#     return;
#   }
#   uart_send_str(to_ent);
 c44:	000b0513          	mv	a0,s6
 c48:	00000097          	auipc	ra,0x0
 c4c:	234080e7          	jalr	564(ra) # e7c <uart_send_str>
#   uart_send_str(" is not here\r\n\r\n");
 c50:	00001537          	lui	a0,0x1
 c54:	15450513          	add	a0,a0,340 # 1154 <delay+0x22c>
 c58:	0700006f          	j	cc8 <action_give+0x144>
#     object_id *lso = ent->objects;
 c5c:	01548433          	add	s0,s1,s5
 c60:	00341413          	sll	s0,s0,0x3
 c64:	00540413          	add	s0,s0,5
#       if (!strings_equal(objects[oid].name, obj))
 c68:	00002ab7          	lui	s5,0x2
#     object_id *lso = ent->objects;
 c6c:	008a0433          	add	s0,s4,s0
#     for (unsigned j = 0; j < ENTITY_MAX_OBJECTS; j++) {
 c70:	00000493          	li	s1,0
#       if (!strings_equal(objects[oid].name, obj))
 c74:	244a8a93          	add	s5,s5,580 # 2244 <objects>
#       const object_id oid = lso[j];
 c78:	009407b3          	add	a5,s0,s1
 c7c:	0007c603          	lbu	a2,0(a5)
#       if (!oid)
 c80:	02060a63          	beqz	a2,cb4 <action_give+0x130>
#       if (!strings_equal(objects[oid].name, obj))
 c84:	00261793          	sll	a5,a2,0x2
 c88:	00fa87b3          	add	a5,s5,a5
 c8c:	0007a503          	lw	a0,0(a5)
 c90:	00090593          	mv	a1,s2
 c94:	00c12623          	sw	a2,12(sp)
 c98:	00000097          	auipc	ra,0x0
 c9c:	1b4080e7          	jalr	436(ra) # e4c <strings_equal>
 ca0:	00c12603          	lw	a2,12(sp)
 ca4:	04051e63          	bnez	a0,d00 <action_give+0x17c>
#     for (unsigned j = 0; j < ENTITY_MAX_OBJECTS; j++) {
 ca8:	00148493          	add	s1,s1,1
 cac:	02000793          	li	a5,32
 cb0:	fcf494e3          	bne	s1,a5,c78 <action_give+0xf4>
#     uart_send_str(obj);
 cb4:	00090513          	mv	a0,s2
 cb8:	00000097          	auipc	ra,0x0
 cbc:	1c4080e7          	jalr	452(ra) # e7c <uart_send_str>
#     uart_send_str(" not in inventory\r\n\r\n");
 cc0:	00001537          	lui	a0,0x1
 cc4:	13c50513          	add	a0,a0,316 # 113c <delay+0x214>
# }
 cc8:	03812403          	lw	s0,56(sp)
 ccc:	03c12083          	lw	ra,60(sp)
 cd0:	03412483          	lw	s1,52(sp)
 cd4:	03012903          	lw	s2,48(sp)
 cd8:	02c12983          	lw	s3,44(sp)
 cdc:	02812a03          	lw	s4,40(sp)
 ce0:	02412a83          	lw	s5,36(sp)
 ce4:	02012b03          	lw	s6,32(sp)
 ce8:	01c12b83          	lw	s7,28(sp)
 cec:	01812c03          	lw	s8,24(sp)
 cf0:	01412c83          	lw	s9,20(sp)
 cf4:	04010113          	add	sp,sp,64
#   uart_send_str(" is not here\r\n\r\n");
 cf8:	00000317          	auipc	t1,0x0
 cfc:	18430067          	jr	388(t1) # e7c <uart_send_str>
#       if (add_object_to_list(to->objects, ENTITY_MAX_OBJECTS, oid)) {
 d00:	01798533          	add	a0,s3,s7
 d04:	00351513          	sll	a0,a0,0x3
 d08:	00550513          	add	a0,a0,5
 d0c:	02000593          	li	a1,32
 d10:	00aa0533          	add	a0,s4,a0
 d14:	00000097          	auipc	ra,0x0
 d18:	968080e7          	jalr	-1688(ra) # 67c <add_object_to_list>
 d1c:	04050263          	beqz	a0,d60 <action_give+0x1dc>
#         remove_object_from_list_by_index(lso, j);
 d20:	00040513          	mv	a0,s0
# }
 d24:	03812403          	lw	s0,56(sp)
 d28:	03c12083          	lw	ra,60(sp)
 d2c:	03012903          	lw	s2,48(sp)
 d30:	02c12983          	lw	s3,44(sp)
 d34:	02812a03          	lw	s4,40(sp)
 d38:	02412a83          	lw	s5,36(sp)
 d3c:	02012b03          	lw	s6,32(sp)
 d40:	01c12b83          	lw	s7,28(sp)
 d44:	01812c03          	lw	s8,24(sp)
 d48:	01412c83          	lw	s9,20(sp)
#         remove_object_from_list_by_index(lso, j);
 d4c:	00048593          	mv	a1,s1
# }
 d50:	03412483          	lw	s1,52(sp)
 d54:	04010113          	add	sp,sp,64
#         remove_object_from_list_by_index(lso, j);
 d58:	00000317          	auipc	t1,0x0
 d5c:	90830067          	jr	-1784(t1) # 660 <remove_object_from_list_by_index>
# }
 d60:	03c12083          	lw	ra,60(sp)
 d64:	03812403          	lw	s0,56(sp)
 d68:	03412483          	lw	s1,52(sp)
 d6c:	03012903          	lw	s2,48(sp)
 d70:	02c12983          	lw	s3,44(sp)
 d74:	02812a03          	lw	s4,40(sp)
 d78:	02412a83          	lw	s5,36(sp)
 d7c:	02012b03          	lw	s6,32(sp)
 d80:	01c12b83          	lw	s7,28(sp)
 d84:	01812c03          	lw	s8,24(sp)
 d88:	01412c83          	lw	s9,20(sp)
 d8c:	04010113          	add	sp,sp,64
 d90:	00008067          	ret

00000d94 <print_help>:
# 
# void print_help() {
#   uart_send_str(
 d94:	00001537          	lui	a0,0x1
 d98:	16850513          	add	a0,a0,360 # 1168 <delay+0x240>
 d9c:	00000317          	auipc	t1,0x0
 da0:	0e030067          	jr	224(t1) # e7c <uart_send_str>

00000da4 <input>:
#       "display inventory\r\n  t <object>: take object\r\n  d <object>: drop "
#       "object\r\n  g <object> <entity>: give object to entity\r\n  help: this "
#       "message\r\n\r\n");
# }
# 
# void input(input_buffer *buf) {
 da4:	fe010113          	add	sp,sp,-32
 da8:	00812c23          	sw	s0,24(sp)
 dac:	00912a23          	sw	s1,20(sp)
 db0:	01212823          	sw	s2,16(sp)
 db4:	01312623          	sw	s3,12(sp)
 db8:	01412423          	sw	s4,8(sp)
 dbc:	00112e23          	sw	ra,28(sp)
 dc0:	00050413          	mv	s0,a0
#   while (1) {
#     const char ch = uart_read_char();
#     if (ch == CHAR_BACKSPACE) {
 dc4:	07f00913          	li	s2,127
#       if (buf->ix > 0) {
#         buf->ix--;
#         uart_send_char(ch);
#       }
#     } else if (ch == CHAR_CARRIAGE_RETURN ||
 dc8:	00d00993          	li	s3,13
 dcc:	04f00a13          	li	s4,79
#     } else {
#       buf->line[buf->ix] = ch;
#       buf->ix++;
#       uart_send_char(ch);
#     }
#     *leds = buf->ix | 0x70;
 dd0:	000024b7          	lui	s1,0x2
#     const char ch = uart_read_char();
 dd4:	00000097          	auipc	ra,0x0
 dd8:	13c080e7          	jalr	316(ra) # f10 <uart_read_char>
#     if (ch == CHAR_BACKSPACE) {
 ddc:	05044783          	lbu	a5,80(s0)
 de0:	03251663          	bne	a0,s2,e0c <input+0x68>
#       if (buf->ix > 0) {
 de4:	00078a63          	beqz	a5,df8 <input+0x54>
#         buf->ix--;
 de8:	fff78793          	add	a5,a5,-1
#       buf->ix++;
 dec:	04f40823          	sb	a5,80(s0)
#       uart_send_char(ch);
 df0:	00000097          	auipc	ra,0x0
 df4:	108080e7          	jalr	264(ra) # ef8 <uart_send_char>
#     *leds = buf->ix | 0x70;
 df8:	05044783          	lbu	a5,80(s0)
 dfc:	5c84a703          	lw	a4,1480(s1) # 25c8 <leds>
 e00:	0707e793          	or	a5,a5,112
 e04:	00f70023          	sb	a5,0(a4)
#   while (1) {
 e08:	fcdff06f          	j	dd4 <input+0x30>
#     } else if (ch == CHAR_CARRIAGE_RETURN ||
 e0c:	00f406b3          	add	a3,s0,a5
 e10:	01350463          	beq	a0,s3,e18 <input+0x74>
 e14:	03479663          	bne	a5,s4,e40 <input+0x9c>
#       buf->line[buf->ix] = 0;
 e18:	00068023          	sb	zero,0(a3)
#       buf->ix = 0;
 e1c:	04040823          	sb	zero,80(s0)
#   }
# }
 e20:	01c12083          	lw	ra,28(sp)
 e24:	01812403          	lw	s0,24(sp)
 e28:	01412483          	lw	s1,20(sp)
 e2c:	01012903          	lw	s2,16(sp)
 e30:	00c12983          	lw	s3,12(sp)
 e34:	00812a03          	lw	s4,8(sp)
 e38:	02010113          	add	sp,sp,32
 e3c:	00008067          	ret
#       buf->line[buf->ix] = ch;
 e40:	00a68023          	sb	a0,0(a3)
#       buf->ix++;
 e44:	00178793          	add	a5,a5,1
 e48:	fa5ff06f          	j	dec <input+0x48>

00000e4c <strings_equal>:
# 
# bool strings_equal(const char *s1, const char *s2) {
 e4c:	00050793          	mv	a5,a0
#   while (1) {
#     char diff = *s1 - *s2;
 e50:	0007c703          	lbu	a4,0(a5)
 e54:	0005c503          	lbu	a0,0(a1)
#     if (diff)
 e58:	00a71e63          	bne	a4,a0,e74 <strings_equal+0x28>
#       return FALSE;
#     if (!*s1 && !*s2)
 e5c:	00051663          	bnez	a0,e68 <strings_equal+0x1c>
 e60:	00100513          	li	a0,1
 e64:	00008067          	ret
#       return TRUE;
#     if (!*s1 || !*s2)
#       return FALSE;
#     s1++;
 e68:	00178793          	add	a5,a5,1
#     s2++;
 e6c:	00158593          	add	a1,a1,1
#   while (1) {
 e70:	fe1ff06f          	j	e50 <strings_equal+0x4>
#       return FALSE;
 e74:	00000513          	li	a0,0
#   }
# }
 e78:	00008067          	ret

00000e7c <uart_send_str>:
# 
# void uart_send_str(const char *str) {
#   while (*str) {
#     while (*uart_out)
 e7c:	000026b7          	lui	a3,0x2
#   while (*str) {
 e80:	00054783          	lbu	a5,0(a0)
 e84:	00079463          	bnez	a5,e8c <uart_send_str+0x10>
#       ;
#     *uart_out = *str++;
#   }
# }
 e88:	00008067          	ret
#     while (*uart_out)
 e8c:	5cc6a703          	lw	a4,1484(a3) # 25cc <uart_out>
 e90:	00074603          	lbu	a2,0(a4)
 e94:	fe061ee3          	bnez	a2,e90 <uart_send_str+0x14>
#     *uart_out = *str++;
 e98:	00150513          	add	a0,a0,1
 e9c:	00f70023          	sb	a5,0(a4)
 ea0:	fe1ff06f          	j	e80 <uart_send_str+0x4>

00000ea4 <uart_send_hex_byte>:
# 
# void uart_send_hex_byte(char ch) {
 ea4:	ff010113          	add	sp,sp,-16
 ea8:	00812423          	sw	s0,8(sp)
 eac:	00050413          	mv	s0,a0
#   uart_send_hex_nibble((ch & 0xf0) >> 4);
 eb0:	00455513          	srl	a0,a0,0x4
# void uart_send_hex_byte(char ch) {
 eb4:	00112623          	sw	ra,12(sp)
#   uart_send_hex_nibble((ch & 0xf0) >> 4);
 eb8:	00000097          	auipc	ra,0x0
 ebc:	020080e7          	jalr	32(ra) # ed8 <uart_send_hex_nibble>
#   uart_send_hex_nibble(ch & 0x0f);
 ec0:	00f47513          	and	a0,s0,15
# }
 ec4:	00812403          	lw	s0,8(sp)
 ec8:	00c12083          	lw	ra,12(sp)
 ecc:	01010113          	add	sp,sp,16
#   uart_send_hex_nibble(ch & 0x0f);
 ed0:	00000317          	auipc	t1,0x0
 ed4:	00830067          	jr	8(t1) # ed8 <uart_send_hex_nibble>

00000ed8 <uart_send_hex_nibble>:
# 
# void uart_send_hex_nibble(char nibble) {
#   if (nibble < 10) {
 ed8:	00900793          	li	a5,9
 edc:	00a7ea63          	bltu	a5,a0,ef0 <uart_send_hex_nibble+0x18>
#     uart_send_char('0' + nibble);
 ee0:	03050513          	add	a0,a0,48
#   } else {
#     uart_send_char('A' + (nibble - 10));
 ee4:	0ff57513          	zext.b	a0,a0
 ee8:	00000317          	auipc	t1,0x0
 eec:	01030067          	jr	16(t1) # ef8 <uart_send_char>
 ef0:	03750513          	add	a0,a0,55
 ef4:	ff1ff06f          	j	ee4 <uart_send_hex_nibble+0xc>

00000ef8 <uart_send_char>:
#   }
# }
# 
# void uart_send_char(char ch) {
#   while (*uart_out)
 ef8:	000027b7          	lui	a5,0x2
 efc:	5cc7a783          	lw	a5,1484(a5) # 25cc <uart_out>
 f00:	0007c703          	lbu	a4,0(a5)
 f04:	fe071ee3          	bnez	a4,f00 <uart_send_char+0x8>
#     ;
#   *uart_out = ch;
 f08:	00a78023          	sb	a0,0(a5)
# }
 f0c:	00008067          	ret

00000f10 <uart_read_char>:
# 
# char uart_read_char() {
#   char ch;
#   while ((ch = *uart_in) == 0)
 f10:	000027b7          	lui	a5,0x2
 f14:	5d07a703          	lw	a4,1488(a5) # 25d0 <uart_in>
 f18:	00074783          	lbu	a5,0(a4)
 f1c:	0ff7f513          	zext.b	a0,a5
 f20:	fe078ce3          	beqz	a5,f18 <uart_read_char+0x8>
#     ;
#   return ch;
# }
 f24:	00008067          	ret

00000f28 <delay>:
# 
# inline void delay(volatile unsigned int ticks) {
 f28:	ff010113          	add	sp,sp,-16
 f2c:	00a12623          	sw	a0,12(sp)
#   while (ticks--)
 f30:	00c12783          	lw	a5,12(sp)
 f34:	fff78713          	add	a4,a5,-1
 f38:	00e12623          	sw	a4,12(sp)
 f3c:	fe079ae3          	bnez	a5,f30 <delay+0x8>
#     ;
# }
 f40:	01010113          	add	sp,sp,16
 f44:	00008067          	ret
