
os:     file format elf32-littleriscv


Disassembly of section .text:

00000000 <_start>:
# .global _start
# 
# # sets up the stack before calling c function 'run' in 'os.c'
# _start:
#     lui sp, 0x2         # set stack at # 0x1fff0
   0:	00002137          	lui	x2,0x2
#     addi sp, sp, -16    #
   4:	ff010113          	addi	x2,x2,-16 # 1ff0 <delay+0x10c8>
   8:	004000ef          	jal	x1,c <run>

0000000c <run>:
# void run() {
#   unsigned char active_entity = 1;
#   input_buffer inbuf;
#   inbuf.ix = 0;
# 
#   uart_send_str(hello);
   c:	000027b7          	lui	x15,0x2
  10:	5d47a503          	lw	x10,1492(x15) # 25d4 <hello>
# void run() {
  14:	f8010113          	addi	x2,x2,-128
  18:	07212823          	sw	x18,112(x2)
# 
#   while (1) {
#     const entity *ent = &entities[active_entity];
#     print_location(ent->location, active_entity);
  1c:	00002937          	lui	x18,0x2
# void run() {
  20:	06812c23          	sw	x8,120(x2)
  24:	07312623          	sw	x19,108(x2)
  28:	07412423          	sw	x20,104(x2)
  2c:	07512223          	sw	x21,100(x2)
  30:	06112e23          	sw	x1,124(x2)
  34:	06912a23          	sw	x9,116(x2)
#   inbuf.ix = 0;
  38:	04010e23          	sb	x0,92(x2)
#   unsigned char active_entity = 1;
  3c:	00100413          	addi	x8,x0,1
#   uart_send_str(hello);
  40:	00001097          	auipc	x1,0x1
  44:	e3c080e7          	jalr	x1,-452(x1) # e7c <uart_send_str>
#     print_location(ent->location, active_entity);
  48:	25490913          	addi	x18,x18,596 # 2254 <entities>
#     uart_send_str(ent->name);
#     uart_send_str(" > ");
  4c:	00001ab7          	lui	x21,0x1
#     input(&inbuf);
#     uart_send_str("\r\n");
  50:	00001a37          	lui	x20,0x1
  54:	00300993          	addi	x19,x0,3
#     print_location(ent->location, active_entity);
  58:	00241493          	slli	x9,x8,0x2
  5c:	008484b3          	add	x9,x9,x8
  60:	00349493          	slli	x9,x9,0x3
  64:	009904b3          	add	x9,x18,x9
  68:	0044c503          	lbu	x10,4(x9)
  6c:	00040593          	addi	x11,x8,0
  70:	00000097          	auipc	x1,0x0
  74:	2d8080e7          	jalr	x1,728(x1) # 348 <print_location>
#     uart_send_str(ent->name);
  78:	0004a503          	lw	x10,0(x9)
  7c:	00001097          	auipc	x1,0x1
  80:	e00080e7          	jalr	x1,-512(x1) # e7c <uart_send_str>
#     uart_send_str(" > ");
  84:	feca8513          	addi	x10,x21,-20 # fec <delay+0xc4>
  88:	00001097          	auipc	x1,0x1
  8c:	df4080e7          	jalr	x1,-524(x1) # e7c <uart_send_str>
#     input(&inbuf);
  90:	00c10513          	addi	x10,x2,12
  94:	00001097          	auipc	x1,0x1
  98:	d10080e7          	jalr	x1,-752(x1) # da4 <input>
#     uart_send_str("\r\n");
  9c:	08ca0513          	addi	x10,x20,140 # 108c <delay+0x164>
  a0:	00001097          	auipc	x1,0x1
  a4:	ddc080e7          	jalr	x1,-548(x1) # e7c <uart_send_str>
#     handle_input(active_entity, &inbuf);
  a8:	00040513          	addi	x10,x8,0
  ac:	00c10593          	addi	x11,x2,12
  b0:	40898433          	sub	x8,x19,x8
  b4:	00000097          	auipc	x1,0x0
  b8:	010080e7          	jalr	x1,16(x1) # c4 <handle_input>
#     if (active_entity == 1)
  bc:	0ff47413          	andi	x8,x8,255
  c0:	f99ff06f          	jal	x0,58 <run+0x4c>

000000c4 <handle_input>:
#     else
#       active_entity = 1;
#   }
# }
# 
# void handle_input(entity_id eid, input_buffer *buf) {
  c4:	fd010113          	addi	x2,x2,-48
  c8:	02812423          	sw	x8,40(x2)
  cc:	03212023          	sw	x18,32(x2)
  d0:	00050413          	addi	x8,x10,0
  d4:	02112623          	sw	x1,44(x2)
  d8:	02912223          	sw	x9,36(x2)
  dc:	00010793          	addi	x15,x2,0
#   const char *words[8];
#   char *ptr = buf->line;
#   unsigned nwords = 0;
  e0:	00000913          	addi	x18,x0,0
#   while (1) {
#     words[nwords++] = ptr;
#     while (*ptr && *ptr != ' ') {
  e4:	02000513          	addi	x10,x0,32
#     }
#     if (!*ptr)
#       break;
#     *ptr = 0;
#     ptr++;
#     if (nwords == sizeof(words) / sizeof(const char *)) {
  e8:	00800613          	addi	x12,x0,8
#     words[nwords++] = ptr;
  ec:	00190913          	addi	x18,x18,1
  f0:	00b7a023          	sw	x11,0(x15)
#     while (*ptr && *ptr != ' ') {
  f4:	0005c683          	lbu	x13,0(x11)
#       ptr++;
  f8:	00058713          	addi	x14,x11,0
#     while (*ptr && *ptr != ' ') {
  fc:	02068463          	beq	x13,x0,124 <handle_input+0x60>
#       ptr++;
 100:	00158593          	addi	x11,x11,1
#     while (*ptr && *ptr != ' ') {
 104:	fea698e3          	bne	x13,x10,f4 <handle_input+0x30>
#     *ptr = 0;
 108:	00070023          	sb	x0,0(x14)
#     if (nwords == sizeof(words) / sizeof(const char *)) {
 10c:	00478793          	addi	x15,x15,4
 110:	fcc91ee3          	bne	x18,x12,ec <handle_input+0x28>
#       uart_send_str("too many words, some ignored\r\n\r\n");
 114:	00001537          	lui	x10,0x1
 118:	ff050513          	addi	x10,x10,-16 # ff0 <delay+0xc8>
 11c:	00001097          	auipc	x1,0x1
 120:	d60080e7          	jalr	x1,-672(x1) # e7c <uart_send_str>
#   }
#   //  for (unsigned i = 0; i < nwords; i++) {
#   //    uart_send_str(words[i]);
#   //    uart_send_str("\r\n");
#   //  }
#   if (strings_equal(words[0], "help")) {
 124:	00012483          	lw	x9,0(x2)
 128:	000015b7          	lui	x11,0x1
 12c:	01458593          	addi	x11,x11,20 # 1014 <delay+0xec>
 130:	00048513          	addi	x10,x9,0
 134:	00001097          	auipc	x1,0x1
 138:	d18080e7          	jalr	x1,-744(x1) # e4c <strings_equal>
 13c:	02050063          	beq	x10,x0,15c <handle_input+0x98>
#     }
#     action_give(eid, words[1], words[2]);
#   } else {
#     uart_send_str("not understood\r\n\r\n");
#   }
# }
 140:	02812403          	lw	x8,40(x2)
 144:	02c12083          	lw	x1,44(x2)
 148:	02412483          	lw	x9,36(x2)
 14c:	02012903          	lw	x18,32(x2)
 150:	03010113          	addi	x2,x2,48
#     print_help();
 154:	00001317          	auipc	x6,0x1
 158:	c4030067          	jalr	x0,-960(x6) # d94 <print_help>
#   } else if (strings_equal(words[0], "i")) {
 15c:	000015b7          	lui	x11,0x1
 160:	01c58593          	addi	x11,x11,28 # 101c <delay+0xf4>
 164:	00048513          	addi	x10,x9,0
 168:	00001097          	auipc	x1,0x1
 16c:	ce4080e7          	jalr	x1,-796(x1) # e4c <strings_equal>
 170:	02050a63          	beq	x10,x0,1a4 <handle_input+0xe0>
#     action_inventory(eid);
 174:	00040513          	addi	x10,x8,0
 178:	00000097          	auipc	x1,0x0
 17c:	400080e7          	jalr	x1,1024(x1) # 578 <action_inventory>
#     uart_send_str("\r\n");
 180:	00001537          	lui	x10,0x1
 184:	08c50513          	addi	x10,x10,140 # 108c <delay+0x164>
# }
 188:	02812403          	lw	x8,40(x2)
 18c:	02c12083          	lw	x1,44(x2)
 190:	02412483          	lw	x9,36(x2)
 194:	02012903          	lw	x18,32(x2)
 198:	03010113          	addi	x2,x2,48
#     uart_send_str("not understood\r\n\r\n");
 19c:	00001317          	auipc	x6,0x1
 1a0:	ce030067          	jalr	x0,-800(x6) # e7c <uart_send_str>
#   } else if (strings_equal(words[0], "t")) {
 1a4:	000015b7          	lui	x11,0x1
 1a8:	02058593          	addi	x11,x11,32 # 1020 <delay+0xf8>
 1ac:	00048513          	addi	x10,x9,0
 1b0:	00001097          	auipc	x1,0x1
 1b4:	c9c080e7          	jalr	x1,-868(x1) # e4c <strings_equal>
 1b8:	02050e63          	beq	x10,x0,1f4 <handle_input+0x130>
#     if (nwords < 2) {
 1bc:	00100793          	addi	x15,x0,1
 1c0:	00f91863          	bne	x18,x15,1d0 <handle_input+0x10c>
#       uart_send_str("take what\r\n\r\n");
 1c4:	00001537          	lui	x10,0x1
 1c8:	02450513          	addi	x10,x10,36 # 1024 <delay+0xfc>
 1cc:	fbdff06f          	jal	x0,188 <handle_input+0xc4>
#     action_take(eid, words[1]);
 1d0:	00040513          	addi	x10,x8,0
# }
 1d4:	02812403          	lw	x8,40(x2)
#     action_take(eid, words[1]);
 1d8:	00412583          	lw	x11,4(x2)
# }
 1dc:	02c12083          	lw	x1,44(x2)
 1e0:	02412483          	lw	x9,36(x2)
 1e4:	02012903          	lw	x18,32(x2)
 1e8:	03010113          	addi	x2,x2,48
#     action_take(eid, words[1]);
 1ec:	00000317          	auipc	x6,0x0
 1f0:	5ac30067          	jalr	x0,1452(x6) # 798 <action_take>
#   } else if (strings_equal(words[0], "d")) {
 1f4:	000015b7          	lui	x11,0x1
 1f8:	03458593          	addi	x11,x11,52 # 1034 <delay+0x10c>
 1fc:	00048513          	addi	x10,x9,0
 200:	00001097          	auipc	x1,0x1
 204:	c4c080e7          	jalr	x1,-948(x1) # e4c <strings_equal>
 208:	02050e63          	beq	x10,x0,244 <handle_input+0x180>
#     if (nwords < 2) {
 20c:	00100793          	addi	x15,x0,1
 210:	00f91863          	bne	x18,x15,220 <handle_input+0x15c>
#       uart_send_str("drop what\r\n\r\n");
 214:	00001537          	lui	x10,0x1
 218:	03850513          	addi	x10,x10,56 # 1038 <delay+0x110>
 21c:	f6dff06f          	jal	x0,188 <handle_input+0xc4>
#     action_drop(eid, words[1]);
 220:	00040513          	addi	x10,x8,0
# }
 224:	02812403          	lw	x8,40(x2)
#     action_drop(eid, words[1]);
 228:	00412583          	lw	x11,4(x2)
# }
 22c:	02c12083          	lw	x1,44(x2)
 230:	02412483          	lw	x9,36(x2)
 234:	02012903          	lw	x18,32(x2)
 238:	03010113          	addi	x2,x2,48
#     action_drop(eid, words[1]);
 23c:	00000317          	auipc	x6,0x0
 240:	6d030067          	jalr	x0,1744(x6) # 90c <action_drop>
#   } else if (strings_equal(words[0], "n")) {
 244:	000015b7          	lui	x11,0x1
 248:	04858593          	addi	x11,x11,72 # 1048 <delay+0x120>
 24c:	00048513          	addi	x10,x9,0
 250:	00001097          	auipc	x1,0x1
 254:	bfc080e7          	jalr	x1,-1028(x1) # e4c <strings_equal>
#     action_go(eid, 0);
 258:	00000593          	addi	x11,x0,0
#   } else if (strings_equal(words[0], "n")) {
 25c:	04051c63          	bne	x10,x0,2b4 <handle_input+0x1f0>
#   } else if (strings_equal(words[0], "e")) {
 260:	000015b7          	lui	x11,0x1
 264:	fa058593          	addi	x11,x11,-96 # fa0 <delay+0x78>
 268:	00048513          	addi	x10,x9,0
 26c:	00001097          	auipc	x1,0x1
 270:	be0080e7          	jalr	x1,-1056(x1) # e4c <strings_equal>
#     action_go(eid, 1);
 274:	00100593          	addi	x11,x0,1
#   } else if (strings_equal(words[0], "e")) {
 278:	02051e63          	bne	x10,x0,2b4 <handle_input+0x1f0>
#   } else if (strings_equal(words[0], "s")) {
 27c:	000015b7          	lui	x11,0x1
 280:	04c58593          	addi	x11,x11,76 # 104c <delay+0x124>
 284:	00048513          	addi	x10,x9,0
 288:	00001097          	auipc	x1,0x1
 28c:	bc4080e7          	jalr	x1,-1084(x1) # e4c <strings_equal>
#     action_go(eid, 2);
 290:	00200593          	addi	x11,x0,2
#   } else if (strings_equal(words[0], "s")) {
 294:	02051063          	bne	x10,x0,2b4 <handle_input+0x1f0>
#   } else if (strings_equal(words[0], "w")) {
 298:	000015b7          	lui	x11,0x1
 29c:	05058593          	addi	x11,x11,80 # 1050 <delay+0x128>
 2a0:	00048513          	addi	x10,x9,0
 2a4:	00001097          	auipc	x1,0x1
 2a8:	ba8080e7          	jalr	x1,-1112(x1) # e4c <strings_equal>
 2ac:	02050463          	beq	x10,x0,2d4 <handle_input+0x210>
#     action_go(eid, 3);
 2b0:	00300593          	addi	x11,x0,3
 2b4:	00040513          	addi	x10,x8,0
# }
 2b8:	02812403          	lw	x8,40(x2)
 2bc:	02c12083          	lw	x1,44(x2)
 2c0:	02412483          	lw	x9,36(x2)
 2c4:	02012903          	lw	x18,32(x2)
 2c8:	03010113          	addi	x2,x2,48
#     action_go(eid, 3);
 2cc:	00000317          	auipc	x6,0x0
 2d0:	7c430067          	jalr	x0,1988(x6) # a90 <action_go>
#   } else if (strings_equal(words[0], "g")) {
 2d4:	000015b7          	lui	x11,0x1
 2d8:	05458593          	addi	x11,x11,84 # 1054 <delay+0x12c>
 2dc:	00048513          	addi	x10,x9,0
 2e0:	00001097          	auipc	x1,0x1
 2e4:	b6c080e7          	jalr	x1,-1172(x1) # e4c <strings_equal>
 2e8:	04050a63          	beq	x10,x0,33c <handle_input+0x278>
#     if (nwords < 2) {
 2ec:	00100793          	addi	x15,x0,1
 2f0:	00f91863          	bne	x18,x15,300 <handle_input+0x23c>
#       uart_send_str("give what\r\n\r\n");
 2f4:	00001537          	lui	x10,0x1
 2f8:	05850513          	addi	x10,x10,88 # 1058 <delay+0x130>
 2fc:	e8dff06f          	jal	x0,188 <handle_input+0xc4>
#     if (nwords < 3) {
 300:	00200793          	addi	x15,x0,2
 304:	00f91863          	bne	x18,x15,314 <handle_input+0x250>
#       uart_send_str("give to whom\r\n\r\n");
 308:	00001537          	lui	x10,0x1
 30c:	06850513          	addi	x10,x10,104 # 1068 <delay+0x140>
 310:	e79ff06f          	jal	x0,188 <handle_input+0xc4>
#     action_give(eid, words[1], words[2]);
 314:	00040513          	addi	x10,x8,0
# }
 318:	02812403          	lw	x8,40(x2)
#     action_give(eid, words[1], words[2]);
 31c:	00812603          	lw	x12,8(x2)
 320:	00412583          	lw	x11,4(x2)
# }
 324:	02c12083          	lw	x1,44(x2)
 328:	02412483          	lw	x9,36(x2)
 32c:	02012903          	lw	x18,32(x2)
 330:	03010113          	addi	x2,x2,48
#     action_give(eid, words[1], words[2]);
 334:	00001317          	auipc	x6,0x1
 338:	85030067          	jalr	x0,-1968(x6) # b84 <action_give>
#     uart_send_str("not understood\r\n\r\n");
 33c:	00001537          	lui	x10,0x1
 340:	07c50513          	addi	x10,x10,124 # 107c <delay+0x154>
 344:	e45ff06f          	jal	x0,188 <handle_input+0xc4>

00000348 <print_location>:
# 
# void print_location(location_id lid, entity_id eid_exclude_from_output) {
 348:	fd010113          	addi	x2,x2,-48
 34c:	03212023          	sw	x18,32(x2)
 350:	00050913          	addi	x18,x10,0
 354:	02812423          	sw	x8,40(x2)
#   const location *loc = &locations[lid];
#   uart_send_str("u r in ");
#   uart_send_str(loc->name);
 358:	00391413          	slli	x8,x18,0x3
 35c:	01240433          	add	x8,x8,x18
#   uart_send_str("u r in ");
 360:	00001537          	lui	x10,0x1
#   uart_send_str(loc->name);
 364:	00241413          	slli	x8,x8,0x2
# void print_location(location_id lid, entity_id eid_exclude_from_output) {
 368:	02912223          	sw	x9,36(x2)
#   uart_send_str("u r in ");
 36c:	09050513          	addi	x10,x10,144 # 1090 <delay+0x168>
#   uart_send_str(loc->name);
 370:	000024b7          	lui	x9,0x2
 374:	01240433          	add	x8,x8,x18
# void print_location(location_id lid, entity_id eid_exclude_from_output) {
 378:	02112623          	sw	x1,44(x2)
 37c:	01312e23          	sw	x19,28(x2)
 380:	01412c23          	sw	x20,24(x2)
 384:	00058993          	addi	x19,x11,0
#   uart_send_str(loc->name);
 388:	2cc48a13          	addi	x20,x9,716 # 22cc <locations>
# void print_location(location_id lid, entity_id eid_exclude_from_output) {
 38c:	01512a23          	sw	x21,20(x2)
#   uart_send_str(loc->name);
 390:	00241413          	slli	x8,x8,0x2
# void print_location(location_id lid, entity_id eid_exclude_from_output) {
 394:	01612823          	sw	x22,16(x2)
 398:	01712623          	sw	x23,12(x2)
 39c:	01812423          	sw	x24,8(x2)
 3a0:	01912223          	sw	x25,4(x2)
#   uart_send_str("u r in ");
 3a4:	00001097          	auipc	x1,0x1
 3a8:	ad8080e7          	jalr	x1,-1320(x1) # e7c <uart_send_str>
#   uart_send_str(loc->name);
 3ac:	008a07b3          	add	x15,x20,x8
 3b0:	0007a503          	lw	x10,0(x15)
#   uart_send_str("\r\nu c: ");
# 
#   // print objects in current location
#   bool add_list_sep = FALSE;
#   const object_id *lso = loc->objects;
 3b4:	00440a93          	addi	x21,x8,4
 3b8:	014a8ab3          	add	x21,x21,x20
#   uart_send_str(loc->name);
 3bc:	00001097          	auipc	x1,0x1
 3c0:	ac0080e7          	jalr	x1,-1344(x1) # e7c <uart_send_str>
#   uart_send_str("\r\nu c: ");
 3c4:	00001537          	lui	x10,0x1
 3c8:	09850513          	addi	x10,x10,152 # 1098 <delay+0x170>
 3cc:	00001097          	auipc	x1,0x1
 3d0:	ab0080e7          	jalr	x1,-1360(x1) # e7c <uart_send_str>
#   for (unsigned i = 0; i < LOCATION_MAX_OBJECTS; i++) {
#     const object_id oid = lso[i];
 3d4:	000ac903          	lbu	x18,0(x21)
#     if (!oid)
 3d8:	2cc48493          	addi	x9,x9,716
 3dc:	18090463          	beq	x18,x0,564 <print_location+0x21c>
#     if (add_list_sep) {
#       uart_send_str(", ");
#     } else {
#       add_list_sep = TRUE;
#     }
#     uart_send_str(objects[oid].name);
 3e0:	00002b37          	lui	x22,0x2
#   for (unsigned i = 0; i < LOCATION_MAX_OBJECTS; i++) {
 3e4:	00000a13          	addi	x20,x0,0
#     uart_send_str(objects[oid].name);
 3e8:	244b0b13          	addi	x22,x22,580 # 2244 <objects>
#   for (unsigned i = 0; i < LOCATION_MAX_OBJECTS; i++) {
 3ec:	08000b93          	addi	x23,x0,128
#       uart_send_str(", ");
 3f0:	00001c37          	lui	x24,0x1
#     uart_send_str(objects[oid].name);
 3f4:	00291913          	slli	x18,x18,0x2
 3f8:	012b0933          	add	x18,x22,x18
 3fc:	00092503          	lw	x10,0(x18)
#   for (unsigned i = 0; i < LOCATION_MAX_OBJECTS; i++) {
 400:	001a0a13          	addi	x20,x20,1
#     uart_send_str(objects[oid].name);
 404:	00001097          	auipc	x1,0x1
 408:	a78080e7          	jalr	x1,-1416(x1) # e7c <uart_send_str>
#   for (unsigned i = 0; i < LOCATION_MAX_OBJECTS; i++) {
 40c:	017a0863          	beq	x20,x23,41c <print_location+0xd4>
#     const object_id oid = lso[i];
 410:	014a87b3          	add	x15,x21,x20
 414:	0007c903          	lbu	x18,0(x15)
#     if (!oid)
 418:	12091e63          	bne	x18,x0,554 <print_location+0x20c>
#   }
#   if (!add_list_sep) {
#     uart_send_str("nothing");
#   }
#   uart_send_str("\r\n");
 41c:	00001a37          	lui	x20,0x1
 420:	08ca0513          	addi	x10,x20,140 # 108c <delay+0x164>
 424:	00001097          	auipc	x1,0x1
 428:	a58080e7          	jalr	x1,-1448(x1) # e7c <uart_send_str>
#     if (add_list_sep) {
#       uart_send_str(", ");
#     } else {
#       add_list_sep = TRUE;
#     }
#     uart_send_str(entities[eid].name);
 42c:	00002937          	lui	x18,0x2
 430:	08440b13          	addi	x22,x8,132
#   for (unsigned i = 0; i < LOCATION_MAX_ENTITIES; i++) {
 434:	00000c13          	addi	x24,x0,0
#   add_list_sep = FALSE;
 438:	00000793          	addi	x15,x0,0
#     uart_send_str(entities[eid].name);
 43c:	25490913          	addi	x18,x18,596 # 2254 <entities>
#       uart_send_str(", ");
 440:	00001bb7          	lui	x23,0x1
#   for (unsigned i = 0; i < LOCATION_MAX_ENTITIES; i++) {
 444:	00800a93          	addi	x21,x0,8
#     const entity_id eid = lse[i];
 448:	016c0733          	add	x14,x24,x22
 44c:	00e48733          	add	x14,x9,x14
 450:	00074c83          	lbu	x25,0(x14)
#     if (!eid)
 454:	040c8063          	beq	x25,x0,494 <print_location+0x14c>
#     if (eid == eid_exclude_from_output)
 458:	033c8a63          	beq	x25,x19,48c <print_location+0x144>
#     if (add_list_sep) {
 45c:	00078863          	beq	x15,x0,46c <print_location+0x124>
#       uart_send_str(", ");
 460:	0a0b8513          	addi	x10,x23,160 # 10a0 <delay+0x178>
 464:	00001097          	auipc	x1,0x1
 468:	a18080e7          	jalr	x1,-1512(x1) # e7c <uart_send_str>
#     uart_send_str(entities[eid].name);
 46c:	002c9793          	slli	x15,x25,0x2
 470:	019787b3          	add	x15,x15,x25
 474:	00379793          	slli	x15,x15,0x3
 478:	00f907b3          	add	x15,x18,x15
 47c:	0007a503          	lw	x10,0(x15)
 480:	00001097          	auipc	x1,0x1
 484:	9fc080e7          	jalr	x1,-1540(x1) # e7c <uart_send_str>
 488:	00100793          	addi	x15,x0,1
#   for (unsigned i = 0; i < LOCATION_MAX_ENTITIES; i++) {
 48c:	001c0c13          	addi	x24,x24,1 # 1001 <delay+0xd9>
 490:	fb5c1ce3          	bne	x24,x21,448 <print_location+0x100>
#   }
#   if (add_list_sep) {
 494:	00078a63          	beq	x15,x0,4a8 <print_location+0x160>
#     uart_send_str(" is here\r\n");
 498:	00001537          	lui	x10,0x1
 49c:	0a450513          	addi	x10,x10,164 # 10a4 <delay+0x17c>
 4a0:	00001097          	auipc	x1,0x1
 4a4:	9dc080e7          	jalr	x1,-1572(x1) # e7c <uart_send_str>
#   }
# 
#   // print exits from current location
#   add_list_sep = FALSE;
#   uart_send_str("exits: ");
 4a8:	00001537          	lui	x10,0x1
 4ac:	0b050513          	addi	x10,x10,176 # 10b0 <delay+0x188>
 4b0:	008484b3          	add	x9,x9,x8
 4b4:	00002437          	lui	x8,0x2
 4b8:	00001097          	auipc	x1,0x1
 4bc:	9c4080e7          	jalr	x1,-1596(x1) # e7c <uart_send_str>
#   for (unsigned i = 0; i < LOCATION_MAX_EXITS; i++) {
 4c0:	5b040413          	addi	x8,x8,1456 # 25b0 <exit_names>
 4c4:	01840913          	addi	x18,x8,24
#   add_list_sep = FALSE;
 4c8:	00000793          	addi	x15,x0,0
#     if (!loc->exits[i])
#       continue;
#     if (add_list_sep) {
#       uart_send_str(", ");
 4cc:	000019b7          	lui	x19,0x1
#     if (!loc->exits[i])
 4d0:	08c4c703          	lbu	x14,140(x9)
 4d4:	02070263          	beq	x14,x0,4f8 <print_location+0x1b0>
#     if (add_list_sep) {
 4d8:	00078863          	beq	x15,x0,4e8 <print_location+0x1a0>
#       uart_send_str(", ");
 4dc:	0a098513          	addi	x10,x19,160 # 10a0 <delay+0x178>
 4e0:	00001097          	auipc	x1,0x1
 4e4:	99c080e7          	jalr	x1,-1636(x1) # e7c <uart_send_str>
#     } else {
#       add_list_sep = TRUE;
#     }
#     uart_send_str(exit_names[i]);
 4e8:	00042503          	lw	x10,0(x8)
 4ec:	00001097          	auipc	x1,0x1
 4f0:	990080e7          	jalr	x1,-1648(x1) # e7c <uart_send_str>
 4f4:	00100793          	addi	x15,x0,1
#   for (unsigned i = 0; i < LOCATION_MAX_EXITS; i++) {
 4f8:	00440413          	addi	x8,x8,4
 4fc:	00148493          	addi	x9,x9,1
 500:	fd2418e3          	bne	x8,x18,4d0 <print_location+0x188>
#   }
#   if (!add_list_sep) {
 504:	00079a63          	bne	x15,x0,518 <print_location+0x1d0>
#     uart_send_str("none");
 508:	00001537          	lui	x10,0x1
 50c:	0b850513          	addi	x10,x10,184 # 10b8 <delay+0x190>
 510:	00001097          	auipc	x1,0x1
 514:	96c080e7          	jalr	x1,-1684(x1) # e7c <uart_send_str>
#   }
#   uart_send_str("\r\n");
# }
 518:	02812403          	lw	x8,40(x2)
 51c:	02c12083          	lw	x1,44(x2)
 520:	02412483          	lw	x9,36(x2)
 524:	02012903          	lw	x18,32(x2)
 528:	01c12983          	lw	x19,28(x2)
 52c:	01412a83          	lw	x21,20(x2)
 530:	01012b03          	lw	x22,16(x2)
 534:	00c12b83          	lw	x23,12(x2)
 538:	00812c03          	lw	x24,8(x2)
 53c:	00412c83          	lw	x25,4(x2)
#   uart_send_str("\r\n");
 540:	08ca0513          	addi	x10,x20,140
# }
 544:	01812a03          	lw	x20,24(x2)
 548:	03010113          	addi	x2,x2,48
#   uart_send_str("\r\n");
 54c:	00001317          	auipc	x6,0x1
 550:	93030067          	jalr	x0,-1744(x6) # e7c <uart_send_str>
#       uart_send_str(", ");
 554:	0a0c0513          	addi	x10,x24,160
 558:	00001097          	auipc	x1,0x1
 55c:	924080e7          	jalr	x1,-1756(x1) # e7c <uart_send_str>
 560:	e95ff06f          	jal	x0,3f4 <print_location+0xac>
#     uart_send_str("nothing");
 564:	00001537          	lui	x10,0x1
 568:	0c050513          	addi	x10,x10,192 # 10c0 <delay+0x198>
 56c:	00001097          	auipc	x1,0x1
 570:	910080e7          	jalr	x1,-1776(x1) # e7c <uart_send_str>
 574:	ea9ff06f          	jal	x0,41c <print_location+0xd4>

00000578 <action_inventory>:
# 
# void action_inventory(entity_id eid) {
 578:	fe010113          	addi	x2,x2,-32
 57c:	00912a23          	sw	x9,20(x2)
 580:	00050493          	addi	x9,x10,0
#   uart_send_str("u have: ");
 584:	00001537          	lui	x10,0x1
# void action_inventory(entity_id eid) {
 588:	00812c23          	sw	x8,24(x2)
#   uart_send_str("u have: ");
 58c:	0c850513          	addi	x10,x10,200 # 10c8 <delay+0x1a0>
#   bool add_list_sep = FALSE;
#   const object_id *lso = entities[eid].objects;
 590:	00249413          	slli	x8,x9,0x2
 594:	00940433          	add	x8,x8,x9
# void action_inventory(entity_id eid) {
 598:	00112e23          	sw	x1,28(x2)
 59c:	01212823          	sw	x18,16(x2)
 5a0:	01312623          	sw	x19,12(x2)
 5a4:	01412423          	sw	x20,8(x2)
 5a8:	01512223          	sw	x21,4(x2)
#   uart_send_str("u have: ");
 5ac:	00001097          	auipc	x1,0x1
 5b0:	8d0080e7          	jalr	x1,-1840(x1) # e7c <uart_send_str>
#   const object_id *lso = entities[eid].objects;
 5b4:	00341413          	slli	x8,x8,0x3
 5b8:	000027b7          	lui	x15,0x2
 5bc:	00540413          	addi	x8,x8,5
 5c0:	25478793          	addi	x15,x15,596 # 2254 <entities>
 5c4:	00f40433          	add	x8,x8,x15
#   for (unsigned i = 0; i < ENTITY_MAX_OBJECTS; i++) {
#     const object_id oid = lso[i];
 5c8:	00044483          	lbu	x9,0(x8)
#     if (!oid)
 5cc:	08048063          	beq	x9,x0,64c <action_inventory+0xd4>
#     if (add_list_sep) {
#       uart_send_str(", ");
#     } else {
#       add_list_sep = TRUE;
#     }
#     uart_send_str(objects[oid].name);
 5d0:	000029b7          	lui	x19,0x2
#   for (unsigned i = 0; i < ENTITY_MAX_OBJECTS; i++) {
 5d4:	00000913          	addi	x18,x0,0
#     uart_send_str(objects[oid].name);
 5d8:	24498993          	addi	x19,x19,580 # 2244 <objects>
#   for (unsigned i = 0; i < ENTITY_MAX_OBJECTS; i++) {
 5dc:	02000a13          	addi	x20,x0,32
#       uart_send_str(", ");
 5e0:	00001ab7          	lui	x21,0x1
#     uart_send_str(objects[oid].name);
 5e4:	00249493          	slli	x9,x9,0x2
 5e8:	009984b3          	add	x9,x19,x9
 5ec:	0004a503          	lw	x10,0(x9)
#   for (unsigned i = 0; i < ENTITY_MAX_OBJECTS; i++) {
 5f0:	00190913          	addi	x18,x18,1
#     uart_send_str(objects[oid].name);
 5f4:	00001097          	auipc	x1,0x1
 5f8:	888080e7          	jalr	x1,-1912(x1) # e7c <uart_send_str>
#   for (unsigned i = 0; i < ENTITY_MAX_OBJECTS; i++) {
 5fc:	01490863          	beq	x18,x20,60c <action_inventory+0x94>
#     const object_id oid = lso[i];
 600:	012407b3          	add	x15,x8,x18
 604:	0007c483          	lbu	x9,0(x15)
#     if (!oid)
 608:	02049a63          	bne	x9,x0,63c <action_inventory+0xc4>
#   }
#   if (!add_list_sep) {
#     uart_send_str("nothing");
#   }
#   uart_send_str("\r\n");
# }
 60c:	01812403          	lw	x8,24(x2)
 610:	01c12083          	lw	x1,28(x2)
 614:	01412483          	lw	x9,20(x2)
 618:	01012903          	lw	x18,16(x2)
 61c:	00c12983          	lw	x19,12(x2)
 620:	00812a03          	lw	x20,8(x2)
 624:	00412a83          	lw	x21,4(x2)
#   uart_send_str("\r\n");
 628:	00001537          	lui	x10,0x1
 62c:	08c50513          	addi	x10,x10,140 # 108c <delay+0x164>
# }
 630:	02010113          	addi	x2,x2,32
#   uart_send_str("\r\n");
 634:	00001317          	auipc	x6,0x1
 638:	84830067          	jalr	x0,-1976(x6) # e7c <uart_send_str>
#       uart_send_str(", ");
 63c:	0a0a8513          	addi	x10,x21,160 # 10a0 <delay+0x178>
 640:	00001097          	auipc	x1,0x1
 644:	83c080e7          	jalr	x1,-1988(x1) # e7c <uart_send_str>
 648:	f9dff06f          	jal	x0,5e4 <action_inventory+0x6c>
#     uart_send_str("nothing");
 64c:	00001537          	lui	x10,0x1
 650:	0c050513          	addi	x10,x10,192 # 10c0 <delay+0x198>
 654:	00001097          	auipc	x1,0x1
 658:	828080e7          	jalr	x1,-2008(x1) # e7c <uart_send_str>
 65c:	fb1ff06f          	jal	x0,60c <action_inventory+0x94>

00000660 <remove_object_from_list_by_index>:
# 
# void remove_object_from_list_by_index(object_id list[], unsigned ix) {
#   object_id *ptr = &list[ix];
 660:	00b50533          	add	x10,x10,x11
#   while (1) {
#     *ptr = *(ptr + 1);
 664:	00154783          	lbu	x15,1(x10)
 668:	00f50023          	sb	x15,0(x10)
#     if (!*ptr)
 66c:	00078663          	beq	x15,x0,678 <remove_object_from_list_by_index+0x18>
#       return;
#     ptr++;
 670:	00150513          	addi	x10,x10,1
#     *ptr = *(ptr + 1);
 674:	ff1ff06f          	jal	x0,664 <remove_object_from_list_by_index+0x4>
#   }
# }
 678:	00008067          	jalr	x0,0(x1)

0000067c <add_object_to_list>:
# 
# bool add_object_to_list(object_id list[], unsigned list_len, object_id oid) {
#   // list_len - 1 since last element has to be 0
#   for (unsigned i = 0; i < list_len - 1; i++) {
 67c:	00000793          	addi	x15,x0,0
 680:	fff58593          	addi	x11,x11,-1
 684:	02b7e663          	bltu	x15,x11,6b0 <add_object_to_list+0x34>
#       continue;
#     list[i] = oid;
#     list[i + 1] = 0;
#     return TRUE;
#   }
#   uart_send_str("space full\r\n");
 688:	00001537          	lui	x10,0x1
# bool add_object_to_list(object_id list[], unsigned list_len, object_id oid) {
 68c:	ff010113          	addi	x2,x2,-16
#   uart_send_str("space full\r\n");
 690:	0d450513          	addi	x10,x10,212 # 10d4 <delay+0x1ac>
# bool add_object_to_list(object_id list[], unsigned list_len, object_id oid) {
 694:	00112623          	sw	x1,12(x2)
#   uart_send_str("space full\r\n");
 698:	00000097          	auipc	x1,0x0
 69c:	7e4080e7          	jalr	x1,2020(x1) # e7c <uart_send_str>
#   return FALSE;
# }
 6a0:	00c12083          	lw	x1,12(x2)
#   return FALSE;
 6a4:	00000513          	addi	x10,x0,0
# }
 6a8:	01010113          	addi	x2,x2,16
 6ac:	00008067          	jalr	x0,0(x1)
#   for (unsigned i = 0; i < list_len - 1; i++) {
 6b0:	00178713          	addi	x14,x15,1
#     if (list[i])
 6b4:	00f507b3          	add	x15,x10,x15
 6b8:	0007c683          	lbu	x13,0(x15)
 6bc:	00069c63          	bne	x13,x0,6d4 <add_object_to_list+0x58>
#     list[i + 1] = 0;
 6c0:	00e50533          	add	x10,x10,x14
#     list[i] = oid;
 6c4:	00c78023          	sb	x12,0(x15)
#     list[i + 1] = 0;
 6c8:	00050023          	sb	x0,0(x10)
#     return TRUE;
 6cc:	00100513          	addi	x10,x0,1
# }
 6d0:	00008067          	jalr	x0,0(x1)
#   for (unsigned i = 0; i < list_len - 1; i++) {
 6d4:	00070793          	addi	x15,x14,0
 6d8:	fadff06f          	jal	x0,684 <add_object_to_list+0x8>

000006dc <add_entity_to_list>:
# 
# bool add_entity_to_list(entity_id list[], unsigned list_len, entity_id eid) {
#   // list_len - 1 since last element has to be 0
#   for (unsigned i = 0; i < list_len - 1; i++) {
 6dc:	00000793          	addi	x15,x0,0
 6e0:	fff58593          	addi	x11,x11,-1
 6e4:	02b7e663          	bltu	x15,x11,710 <add_entity_to_list+0x34>
#       continue;
#     list[i] = eid;
#     list[i + 1] = 0;
#     return TRUE;
#   }
#   uart_send_str("location full\r\n");
 6e8:	00001537          	lui	x10,0x1
# bool add_entity_to_list(entity_id list[], unsigned list_len, entity_id eid) {
 6ec:	ff010113          	addi	x2,x2,-16
#   uart_send_str("location full\r\n");
 6f0:	0e450513          	addi	x10,x10,228 # 10e4 <delay+0x1bc>
# bool add_entity_to_list(entity_id list[], unsigned list_len, entity_id eid) {
 6f4:	00112623          	sw	x1,12(x2)
#   uart_send_str("location full\r\n");
 6f8:	00000097          	auipc	x1,0x0
 6fc:	784080e7          	jalr	x1,1924(x1) # e7c <uart_send_str>
#   return FALSE;
# }
 700:	00c12083          	lw	x1,12(x2)
#   return FALSE;
 704:	00000513          	addi	x10,x0,0
# }
 708:	01010113          	addi	x2,x2,16
 70c:	00008067          	jalr	x0,0(x1)
#   for (unsigned i = 0; i < list_len - 1; i++) {
 710:	00178713          	addi	x14,x15,1
#     if (list[i])
 714:	00f507b3          	add	x15,x10,x15
 718:	0007c683          	lbu	x13,0(x15)
 71c:	00069c63          	bne	x13,x0,734 <add_entity_to_list+0x58>
#     list[i + 1] = 0;
 720:	00e50533          	add	x10,x10,x14
#     list[i] = eid;
 724:	00c78023          	sb	x12,0(x15)
#     list[i + 1] = 0;
 728:	00050023          	sb	x0,0(x10)
#     return TRUE;
 72c:	00100513          	addi	x10,x0,1
# }
 730:	00008067          	jalr	x0,0(x1)
#   for (unsigned i = 0; i < list_len - 1; i++) {
 734:	00070793          	addi	x15,x14,0
 738:	fadff06f          	jal	x0,6e4 <add_entity_to_list+0x8>

0000073c <remove_entity_from_list>:
# 
# void remove_entity_from_list(entity_id list[], unsigned list_len,
#                              entity_id eid) {
#   // list_len - 1 since last element has to be 0
#   for (unsigned i = 0; i < list_len - 1; i++) {
 73c:	fff58813          	addi	x16,x11,-1
 740:	00a585b3          	add	x11,x11,x10
 744:	00000713          	addi	x14,x0,0
 748:	fff58593          	addi	x11,x11,-1
 74c:	01076a63          	bltu	x14,x16,760 <remove_entity_from_list+0x24>
#       list[j] = list[j + 1];
#       if (!list[j])
#         return;
#     }
#   }
#   uart_send_str("entity not here\r\n");
 750:	00001537          	lui	x10,0x1
 754:	0f450513          	addi	x10,x10,244 # 10f4 <delay+0x1cc>
 758:	00000317          	auipc	x6,0x0
 75c:	72430067          	jalr	x0,1828(x6) # e7c <uart_send_str>
#     if (list[i] != eid)
 760:	00e507b3          	add	x15,x10,x14
 764:	0007c683          	lbu	x13,0(x15)
 768:	00c68e63          	beq	x13,x12,784 <remove_entity_from_list+0x48>
#   for (unsigned i = 0; i < list_len - 1; i++) {
 76c:	00170713          	addi	x14,x14,1
 770:	fddff06f          	jal	x0,74c <remove_entity_from_list+0x10>
#       list[j] = list[j + 1];
 774:	0017c683          	lbu	x13,1(x15)
#       if (!list[j])
 778:	00178793          	addi	x15,x15,1
#       list[j] = list[j + 1];
 77c:	fed78fa3          	sb	x13,-1(x15)
#       if (!list[j])
 780:	00068663          	beq	x13,x0,78c <remove_entity_from_list+0x50>
#     for (unsigned j = i; j < list_len - 1; j++) {
 784:	feb798e3          	bne	x15,x11,774 <remove_entity_from_list+0x38>
 788:	fe5ff06f          	jal	x0,76c <remove_entity_from_list+0x30>
# }
 78c:	00008067          	jalr	x0,0(x1)

00000790 <remove_entity_from_list_by_index>:
# 
# void remove_entity_from_list_by_index(entity_id list[], unsigned ix) {
 790:	00000317          	auipc	x6,0x0
 794:	ed030067          	jalr	x0,-304(x6) # 660 <remove_object_from_list_by_index>

00000798 <action_take>:
#       return;
#     ptr++;
#   }
# }
# 
# void action_take(entity_id eid, object_name obj) {
 798:	fd010113          	addi	x2,x2,-48
 79c:	01312e23          	sw	x19,28(x2)
 7a0:	00050993          	addi	x19,x10,0
 7a4:	02912223          	sw	x9,36(x2)
#   entity *ent = &entities[eid];
#   object_id *lso = locations[ent->location].objects;
 7a8:	00299493          	slli	x9,x19,0x2
 7ac:	00002537          	lui	x10,0x2
 7b0:	01348733          	add	x14,x9,x19
 7b4:	25450793          	addi	x15,x10,596 # 2254 <entities>
 7b8:	00371713          	slli	x14,x14,0x3
 7bc:	00e787b3          	add	x15,x15,x14
 7c0:	0047c783          	lbu	x15,4(x15)
# void action_take(entity_id eid, object_name obj) {
 7c4:	02812423          	sw	x8,40(x2)
 7c8:	01612823          	sw	x22,16(x2)
#   object_id *lso = locations[ent->location].objects;
 7cc:	00379413          	slli	x8,x15,0x3
 7d0:	00f40433          	add	x8,x8,x15
 7d4:	00241413          	slli	x8,x8,0x2
 7d8:	00f40433          	add	x8,x8,x15
 7dc:	00241413          	slli	x8,x8,0x2
 7e0:	000027b7          	lui	x15,0x2
 7e4:	00440413          	addi	x8,x8,4
 7e8:	2cc78793          	addi	x15,x15,716 # 22cc <locations>
#   for (unsigned i = 0; i < LOCATION_MAX_OBJECTS; i++) {
#     const object_id oid = lso[i];
#     if (!oid)
#       break;
#     if (!strings_equal(objects[oid].name, obj))
 7ec:	00002b37          	lui	x22,0x2
# void action_take(entity_id eid, object_name obj) {
 7f0:	03212023          	sw	x18,32(x2)
 7f4:	01412c23          	sw	x20,24(x2)
 7f8:	01512a23          	sw	x21,20(x2)
 7fc:	02112623          	sw	x1,44(x2)
 800:	00058a13          	addi	x20,x11,0
#   object_id *lso = locations[ent->location].objects;
 804:	00f40433          	add	x8,x8,x15
#   for (unsigned i = 0; i < LOCATION_MAX_OBJECTS; i++) {
 808:	00000913          	addi	x18,x0,0
 80c:	25450a93          	addi	x21,x10,596
#     if (!strings_equal(objects[oid].name, obj))
 810:	244b0b13          	addi	x22,x22,580 # 2244 <objects>
#     const object_id oid = lso[i];
 814:	012407b3          	add	x15,x8,x18
 818:	0007c603          	lbu	x12,0(x15)
#     if (!oid)
 81c:	02060a63          	beq	x12,x0,850 <action_take+0xb8>
#     if (!strings_equal(objects[oid].name, obj))
 820:	00261793          	slli	x15,x12,0x2
 824:	00fb07b3          	add	x15,x22,x15
 828:	0007a503          	lw	x10,0(x15)
 82c:	000a0593          	addi	x11,x20,0
 830:	00c12623          	sw	x12,12(x2)
 834:	00000097          	auipc	x1,0x0
 838:	618080e7          	jalr	x1,1560(x1) # e4c <strings_equal>
 83c:	00c12603          	lw	x12,12(x2)
 840:	04051863          	bne	x10,x0,890 <action_take+0xf8>
#   for (unsigned i = 0; i < LOCATION_MAX_OBJECTS; i++) {
 844:	00190913          	addi	x18,x18,1
 848:	08000793          	addi	x15,x0,128
 84c:	fcf914e3          	bne	x18,x15,814 <action_take+0x7c>
#     if (add_object_to_list(ent->objects, ENTITY_MAX_OBJECTS, oid)) {
#       remove_object_from_list_by_index(lso, i);
#     }
#     return;
#   }
#   uart_send_str(obj);
 850:	000a0513          	addi	x10,x20,0
 854:	00000097          	auipc	x1,0x0
 858:	628080e7          	jalr	x1,1576(x1) # e7c <uart_send_str>
#   uart_send_str(" not here\r\n\r\n");
# }
 85c:	02812403          	lw	x8,40(x2)
 860:	02c12083          	lw	x1,44(x2)
 864:	02412483          	lw	x9,36(x2)
 868:	02012903          	lw	x18,32(x2)
 86c:	01c12983          	lw	x19,28(x2)
 870:	01812a03          	lw	x20,24(x2)
 874:	01412a83          	lw	x21,20(x2)
 878:	01012b03          	lw	x22,16(x2)
#   uart_send_str(" not here\r\n\r\n");
 87c:	00001537          	lui	x10,0x1
 880:	10850513          	addi	x10,x10,264 # 1108 <delay+0x1e0>
# }
 884:	03010113          	addi	x2,x2,48
#   uart_send_str(" not here\r\n\r\n");
 888:	00000317          	auipc	x6,0x0
 88c:	5f430067          	jalr	x0,1524(x6) # e7c <uart_send_str>
#     if (add_object_to_list(ent->objects, ENTITY_MAX_OBJECTS, oid)) {
 890:	01348533          	add	x10,x9,x19
 894:	00351513          	slli	x10,x10,0x3
 898:	00550513          	addi	x10,x10,5
 89c:	02000593          	addi	x11,x0,32
 8a0:	00aa8533          	add	x10,x21,x10
 8a4:	00000097          	auipc	x1,0x0
 8a8:	dd8080e7          	jalr	x1,-552(x1) # 67c <add_object_to_list>
 8ac:	02050c63          	beq	x10,x0,8e4 <action_take+0x14c>
#       remove_object_from_list_by_index(lso, i);
 8b0:	00040513          	addi	x10,x8,0
# }
 8b4:	02812403          	lw	x8,40(x2)
 8b8:	02c12083          	lw	x1,44(x2)
 8bc:	02412483          	lw	x9,36(x2)
 8c0:	01c12983          	lw	x19,28(x2)
 8c4:	01812a03          	lw	x20,24(x2)
 8c8:	01412a83          	lw	x21,20(x2)
 8cc:	01012b03          	lw	x22,16(x2)
#       remove_object_from_list_by_index(lso, i);
 8d0:	00090593          	addi	x11,x18,0
# }
 8d4:	02012903          	lw	x18,32(x2)
 8d8:	03010113          	addi	x2,x2,48
#       remove_object_from_list_by_index(lso, i);
 8dc:	00000317          	auipc	x6,0x0
 8e0:	d8430067          	jalr	x0,-636(x6) # 660 <remove_object_from_list_by_index>
# }
 8e4:	02c12083          	lw	x1,44(x2)
 8e8:	02812403          	lw	x8,40(x2)
 8ec:	02412483          	lw	x9,36(x2)
 8f0:	02012903          	lw	x18,32(x2)
 8f4:	01c12983          	lw	x19,28(x2)
 8f8:	01812a03          	lw	x20,24(x2)
 8fc:	01412a83          	lw	x21,20(x2)
 900:	01012b03          	lw	x22,16(x2)
 904:	03010113          	addi	x2,x2,48
 908:	00008067          	jalr	x0,0(x1)

0000090c <action_drop>:
# 
# void action_drop(entity_id eid, object_name obj) {
 90c:	fd010113          	addi	x2,x2,-48
 910:	03212023          	sw	x18,32(x2)
#   entity *ent = &entities[eid];
#   object_id *lso = ent->objects;
 914:	00251913          	slli	x18,x10,0x2
# void action_drop(entity_id eid, object_name obj) {
 918:	02812423          	sw	x8,40(x2)
#   object_id *lso = ent->objects;
 91c:	00a90433          	add	x8,x18,x10
 920:	000027b7          	lui	x15,0x2
 924:	00341413          	slli	x8,x8,0x3
# void action_drop(entity_id eid, object_name obj) {
 928:	01612823          	sw	x22,16(x2)
#   object_id *lso = ent->objects;
 92c:	00540413          	addi	x8,x8,5
 930:	25478713          	addi	x14,x15,596 # 2254 <entities>
#   for (unsigned i = 0; i < ENTITY_MAX_OBJECTS; i++) {
#     const object_id oid = lso[i];
#     if (!oid)
#       break;
#     if (!strings_equal(objects[oid].name, obj))
 934:	00002b37          	lui	x22,0x2
# void action_drop(entity_id eid, object_name obj) {
 938:	02912223          	sw	x9,36(x2)
 93c:	01312e23          	sw	x19,28(x2)
 940:	01412c23          	sw	x20,24(x2)
 944:	01512a23          	sw	x21,20(x2)
 948:	02112623          	sw	x1,44(x2)
 94c:	00050a13          	addi	x20,x10,0
 950:	00058a93          	addi	x21,x11,0
#   object_id *lso = ent->objects;
 954:	00e40433          	add	x8,x8,x14
#   for (unsigned i = 0; i < ENTITY_MAX_OBJECTS; i++) {
 958:	00000993          	addi	x19,x0,0
 95c:	25478493          	addi	x9,x15,596
#     if (!strings_equal(objects[oid].name, obj))
 960:	244b0b13          	addi	x22,x22,580 # 2244 <objects>
#     const object_id oid = lso[i];
 964:	013407b3          	add	x15,x8,x19
 968:	0007c603          	lbu	x12,0(x15)
#     if (!oid)
 96c:	02060a63          	beq	x12,x0,9a0 <action_drop+0x94>
#     if (!strings_equal(objects[oid].name, obj))
 970:	00261793          	slli	x15,x12,0x2
 974:	00fb07b3          	add	x15,x22,x15
 978:	0007a503          	lw	x10,0(x15)
 97c:	000a8593          	addi	x11,x21,0
 980:	00c12623          	sw	x12,12(x2)
 984:	00000097          	auipc	x1,0x0
 988:	4c8080e7          	jalr	x1,1224(x1) # e4c <strings_equal>
 98c:	00c12603          	lw	x12,12(x2)
 990:	06051063          	bne	x10,x0,9f0 <action_drop+0xe4>
#   for (unsigned i = 0; i < ENTITY_MAX_OBJECTS; i++) {
 994:	00198993          	addi	x19,x19,1
 998:	02000793          	addi	x15,x0,32
 99c:	fcf994e3          	bne	x19,x15,964 <action_drop+0x58>
#                            LOCATION_MAX_OBJECTS, oid)) {
#       remove_object_from_list_by_index(lso, i);
#     }
#     return;
#   }
#   uart_send_str("u don't have ");
 9a0:	00001537          	lui	x10,0x1
 9a4:	11850513          	addi	x10,x10,280 # 1118 <delay+0x1f0>
 9a8:	00000097          	auipc	x1,0x0
 9ac:	4d4080e7          	jalr	x1,1236(x1) # e7c <uart_send_str>
#   uart_send_str(obj);
 9b0:	000a8513          	addi	x10,x21,0
 9b4:	00000097          	auipc	x1,0x0
 9b8:	4c8080e7          	jalr	x1,1224(x1) # e7c <uart_send_str>
#   uart_send_str("\r\n\r\n");
# }
 9bc:	02812403          	lw	x8,40(x2)
 9c0:	02c12083          	lw	x1,44(x2)
 9c4:	02412483          	lw	x9,36(x2)
 9c8:	02012903          	lw	x18,32(x2)
 9cc:	01c12983          	lw	x19,28(x2)
 9d0:	01812a03          	lw	x20,24(x2)
 9d4:	01412a83          	lw	x21,20(x2)
 9d8:	01012b03          	lw	x22,16(x2)
#   uart_send_str("\r\n\r\n");
 9dc:	00001537          	lui	x10,0x1
 9e0:	f7050513          	addi	x10,x10,-144 # f70 <delay+0x48>
# }
 9e4:	03010113          	addi	x2,x2,48
#   uart_send_str("\r\n\r\n");
 9e8:	00000317          	auipc	x6,0x0
 9ec:	49430067          	jalr	x0,1172(x6) # e7c <uart_send_str>
#     if (add_object_to_list(locations[ent->location].objects,
 9f0:	01490933          	add	x18,x18,x20
 9f4:	00391913          	slli	x18,x18,0x3
 9f8:	012487b3          	add	x15,x9,x18
 9fc:	0047c703          	lbu	x14,4(x15)
 a00:	00002537          	lui	x10,0x2
 a04:	2cc50513          	addi	x10,x10,716 # 22cc <locations>
 a08:	00371793          	slli	x15,x14,0x3
 a0c:	00e787b3          	add	x15,x15,x14
 a10:	00279793          	slli	x15,x15,0x2
 a14:	00e787b3          	add	x15,x15,x14
 a18:	00279793          	slli	x15,x15,0x2
 a1c:	00478793          	addi	x15,x15,4
 a20:	08000593          	addi	x11,x0,128
 a24:	00f50533          	add	x10,x10,x15
 a28:	00000097          	auipc	x1,0x0
 a2c:	c54080e7          	jalr	x1,-940(x1) # 67c <add_object_to_list>
 a30:	02050c63          	beq	x10,x0,a68 <action_drop+0x15c>
#       remove_object_from_list_by_index(lso, i);
 a34:	00040513          	addi	x10,x8,0
# }
 a38:	02812403          	lw	x8,40(x2)
 a3c:	02c12083          	lw	x1,44(x2)
 a40:	02412483          	lw	x9,36(x2)
 a44:	02012903          	lw	x18,32(x2)
 a48:	01812a03          	lw	x20,24(x2)
 a4c:	01412a83          	lw	x21,20(x2)
 a50:	01012b03          	lw	x22,16(x2)
#       remove_object_from_list_by_index(lso, i);
 a54:	00098593          	addi	x11,x19,0
# }
 a58:	01c12983          	lw	x19,28(x2)
 a5c:	03010113          	addi	x2,x2,48
#       remove_object_from_list_by_index(lso, i);
 a60:	00000317          	auipc	x6,0x0
 a64:	c0030067          	jalr	x0,-1024(x6) # 660 <remove_object_from_list_by_index>
# }
 a68:	02c12083          	lw	x1,44(x2)
 a6c:	02812403          	lw	x8,40(x2)
 a70:	02412483          	lw	x9,36(x2)
 a74:	02012903          	lw	x18,32(x2)
 a78:	01c12983          	lw	x19,28(x2)
 a7c:	01812a03          	lw	x20,24(x2)
 a80:	01412a83          	lw	x21,20(x2)
 a84:	01012b03          	lw	x22,16(x2)
 a88:	03010113          	addi	x2,x2,48
 a8c:	00008067          	jalr	x0,0(x1)

00000a90 <action_go>:
# 
# void action_go(entity_id eid, direction dir) {
 a90:	fd010113          	addi	x2,x2,-48
#   entity *ent = &entities[eid];
#   location *loc = &locations[ent->location];
 a94:	00251793          	slli	x15,x10,0x2
# void action_go(entity_id eid, direction dir) {
 a98:	02912223          	sw	x9,36(x2)
#   location *loc = &locations[ent->location];
 a9c:	00a787b3          	add	x15,x15,x10
 aa0:	000024b7          	lui	x9,0x2
 aa4:	00379793          	slli	x15,x15,0x3
 aa8:	25448493          	addi	x9,x9,596 # 2254 <entities>
 aac:	00f484b3          	add	x9,x9,x15
 ab0:	0044c783          	lbu	x15,4(x9)
# void action_go(entity_id eid, direction dir) {
 ab4:	02812423          	sw	x8,40(x2)
 ab8:	01312e23          	sw	x19,28(x2)
#   const location_id to = loc->exits[dir];
 abc:	00379413          	slli	x8,x15,0x3
 ac0:	00f40433          	add	x8,x8,x15
 ac4:	00241413          	slli	x8,x8,0x2
 ac8:	00f40433          	add	x8,x8,x15
 acc:	000029b7          	lui	x19,0x2
 ad0:	2cc98993          	addi	x19,x19,716 # 22cc <locations>
 ad4:	00241413          	slli	x8,x8,0x2
 ad8:	008987b3          	add	x15,x19,x8
 adc:	00b787b3          	add	x15,x15,x11
# void action_go(entity_id eid, direction dir) {
 ae0:	03212023          	sw	x18,32(x2)
#   const location_id to = loc->exits[dir];
 ae4:	08c7c903          	lbu	x18,140(x15)
# void action_go(entity_id eid, direction dir) {
 ae8:	02112623          	sw	x1,44(x2)
#   if (!to) {
 aec:	02091663          	bne	x18,x0,b18 <action_go+0x88>
#   }
#   if (add_entity_to_list(locations[to].entities, LOCATION_MAX_ENTITIES, eid)) {
#     remove_entity_from_list(loc->entities, LOCATION_MAX_ENTITIES, eid);
#     ent->location = to;
#   }
# }
 af0:	02812403          	lw	x8,40(x2)
 af4:	02c12083          	lw	x1,44(x2)
 af8:	02412483          	lw	x9,36(x2)
 afc:	02012903          	lw	x18,32(x2)
 b00:	01c12983          	lw	x19,28(x2)
#     uart_send_str("cannot go there\r\n\r\n");
 b04:	00001537          	lui	x10,0x1
 b08:	12850513          	addi	x10,x10,296 # 1128 <delay+0x200>
# }
 b0c:	03010113          	addi	x2,x2,48
#     uart_send_str("cannot go there\r\n\r\n");
 b10:	00000317          	auipc	x6,0x0
 b14:	36c30067          	jalr	x0,876(x6) # e7c <uart_send_str>
#   if (add_entity_to_list(locations[to].entities, LOCATION_MAX_ENTITIES, eid)) {
 b18:	00391793          	slli	x15,x18,0x3
 b1c:	012787b3          	add	x15,x15,x18
 b20:	00279793          	slli	x15,x15,0x2
 b24:	012787b3          	add	x15,x15,x18
 b28:	00279793          	slli	x15,x15,0x2
 b2c:	08478793          	addi	x15,x15,132
 b30:	00050613          	addi	x12,x10,0
 b34:	00a12623          	sw	x10,12(x2)
 b38:	00800593          	addi	x11,x0,8
 b3c:	00f98533          	add	x10,x19,x15
 b40:	00000097          	auipc	x1,0x0
 b44:	b9c080e7          	jalr	x1,-1124(x1) # 6dc <add_entity_to_list>
 b48:	00c12603          	lw	x12,12(x2)
 b4c:	00050e63          	beq	x10,x0,b68 <action_go+0xd8>
#     remove_entity_from_list(loc->entities, LOCATION_MAX_ENTITIES, eid);
 b50:	08440413          	addi	x8,x8,132
 b54:	00800593          	addi	x11,x0,8
 b58:	00898533          	add	x10,x19,x8
 b5c:	00000097          	auipc	x1,0x0
 b60:	be0080e7          	jalr	x1,-1056(x1) # 73c <remove_entity_from_list>
#     ent->location = to;
 b64:	01248223          	sb	x18,4(x9)
# }
 b68:	02c12083          	lw	x1,44(x2)
 b6c:	02812403          	lw	x8,40(x2)
 b70:	02412483          	lw	x9,36(x2)
 b74:	02012903          	lw	x18,32(x2)
 b78:	01c12983          	lw	x19,28(x2)
 b7c:	03010113          	addi	x2,x2,48
 b80:	00008067          	jalr	x0,0(x1)

00000b84 <action_give>:
# 
# void action_give(entity_id eid, object_name obj, entity_name to_ent) {
 b84:	fc010113          	addi	x2,x2,-64
 b88:	02912a23          	sw	x9,52(x2)
#   entity *ent = &entities[eid];
#   const location *loc = &locations[ent->location];
 b8c:	00251493          	slli	x9,x10,0x2
# void action_give(entity_id eid, object_name obj, entity_name to_ent) {
 b90:	03412423          	sw	x20,40(x2)
#   const location *loc = &locations[ent->location];
 b94:	00a48733          	add	x14,x9,x10
 b98:	00002a37          	lui	x20,0x2
 b9c:	254a0793          	addi	x15,x20,596 # 2254 <entities>
 ba0:	00371713          	slli	x14,x14,0x3
 ba4:	00e787b3          	add	x15,x15,x14
 ba8:	0047c783          	lbu	x15,4(x15)
# void action_give(entity_id eid, object_name obj, entity_name to_ent) {
 bac:	02812c23          	sw	x8,56(x2)
 bb0:	01912a23          	sw	x25,20(x2)
 bb4:	00379413          	slli	x8,x15,0x3
 bb8:	00f40433          	add	x8,x8,x15
 bbc:	00241413          	slli	x8,x8,0x2
 bc0:	00f40433          	add	x8,x8,x15
 bc4:	00241413          	slli	x8,x8,0x2
#   const entity_id *lse = loc->entities;
#   for (unsigned i = 0; i < LOCATION_MAX_ENTITIES; i++) {
#     if (!lse[i])
 bc8:	00002cb7          	lui	x25,0x2
# void action_give(entity_id eid, object_name obj, entity_name to_ent) {
 bcc:	03212823          	sw	x18,48(x2)
 bd0:	03512223          	sw	x21,36(x2)
 bd4:	03612023          	sw	x22,32(x2)
 bd8:	01812c23          	sw	x24,24(x2)
 bdc:	02112e23          	sw	x1,60(x2)
 be0:	03312623          	sw	x19,44(x2)
 be4:	01712e23          	sw	x23,28(x2)
 be8:	00050a93          	addi	x21,x10,0
 bec:	00058913          	addi	x18,x11,0
 bf0:	00060b13          	addi	x22,x12,0
 bf4:	08440413          	addi	x8,x8,132
#   for (unsigned i = 0; i < LOCATION_MAX_ENTITIES; i++) {
 bf8:	00000c13          	addi	x24,x0,0
 bfc:	254a0a13          	addi	x20,x20,596
#     if (!lse[i])
 c00:	2ccc8c93          	addi	x25,x25,716 # 22cc <locations>
 c04:	018407b3          	add	x15,x8,x24
 c08:	019787b3          	add	x15,x15,x25
 c0c:	0007cb83          	lbu	x23,0(x15)
 c10:	020b8a63          	beq	x23,x0,c44 <action_give+0xc0>
#       break;
#     entity *to = &entities[lse[i]];
#     if (!strings_equal(to->name, to_ent))
 c14:	002b9993          	slli	x19,x23,0x2
 c18:	017987b3          	add	x15,x19,x23
 c1c:	00379793          	slli	x15,x15,0x3
 c20:	00fa07b3          	add	x15,x20,x15
 c24:	0007a503          	lw	x10,0(x15)
 c28:	000b0593          	addi	x11,x22,0
 c2c:	00000097          	auipc	x1,0x0
 c30:	220080e7          	jalr	x1,544(x1) # e4c <strings_equal>
 c34:	02051463          	bne	x10,x0,c5c <action_give+0xd8>
#   for (unsigned i = 0; i < LOCATION_MAX_ENTITIES; i++) {
 c38:	001c0c13          	addi	x24,x24,1
 c3c:	00800793          	addi	x15,x0,8
 c40:	fcfc12e3          	bne	x24,x15,c04 <action_give+0x80>
#     }
#     uart_send_str(obj);
#     uart_send_str(" not in inventory\r\n\r\n");
#     return;
#   }
#   uart_send_str(to_ent);
 c44:	000b0513          	addi	x10,x22,0
 c48:	00000097          	auipc	x1,0x0
 c4c:	234080e7          	jalr	x1,564(x1) # e7c <uart_send_str>
#   uart_send_str(" is not here\r\n\r\n");
 c50:	00001537          	lui	x10,0x1
 c54:	15450513          	addi	x10,x10,340 # 1154 <delay+0x22c>
 c58:	0700006f          	jal	x0,cc8 <action_give+0x144>
#     object_id *lso = ent->objects;
 c5c:	01548433          	add	x8,x9,x21
 c60:	00341413          	slli	x8,x8,0x3
 c64:	00540413          	addi	x8,x8,5
#       if (!strings_equal(objects[oid].name, obj))
 c68:	00002ab7          	lui	x21,0x2
#     object_id *lso = ent->objects;
 c6c:	008a0433          	add	x8,x20,x8
#     for (unsigned j = 0; j < ENTITY_MAX_OBJECTS; j++) {
 c70:	00000493          	addi	x9,x0,0
#       if (!strings_equal(objects[oid].name, obj))
 c74:	244a8a93          	addi	x21,x21,580 # 2244 <objects>
#       const object_id oid = lso[j];
 c78:	009407b3          	add	x15,x8,x9
 c7c:	0007c603          	lbu	x12,0(x15)
#       if (!oid)
 c80:	02060a63          	beq	x12,x0,cb4 <action_give+0x130>
#       if (!strings_equal(objects[oid].name, obj))
 c84:	00261793          	slli	x15,x12,0x2
 c88:	00fa87b3          	add	x15,x21,x15
 c8c:	0007a503          	lw	x10,0(x15)
 c90:	00090593          	addi	x11,x18,0
 c94:	00c12623          	sw	x12,12(x2)
 c98:	00000097          	auipc	x1,0x0
 c9c:	1b4080e7          	jalr	x1,436(x1) # e4c <strings_equal>
 ca0:	00c12603          	lw	x12,12(x2)
 ca4:	04051e63          	bne	x10,x0,d00 <action_give+0x17c>
#     for (unsigned j = 0; j < ENTITY_MAX_OBJECTS; j++) {
 ca8:	00148493          	addi	x9,x9,1
 cac:	02000793          	addi	x15,x0,32
 cb0:	fcf494e3          	bne	x9,x15,c78 <action_give+0xf4>
#     uart_send_str(obj);
 cb4:	00090513          	addi	x10,x18,0
 cb8:	00000097          	auipc	x1,0x0
 cbc:	1c4080e7          	jalr	x1,452(x1) # e7c <uart_send_str>
#     uart_send_str(" not in inventory\r\n\r\n");
 cc0:	00001537          	lui	x10,0x1
 cc4:	13c50513          	addi	x10,x10,316 # 113c <delay+0x214>
# }
 cc8:	03812403          	lw	x8,56(x2)
 ccc:	03c12083          	lw	x1,60(x2)
 cd0:	03412483          	lw	x9,52(x2)
 cd4:	03012903          	lw	x18,48(x2)
 cd8:	02c12983          	lw	x19,44(x2)
 cdc:	02812a03          	lw	x20,40(x2)
 ce0:	02412a83          	lw	x21,36(x2)
 ce4:	02012b03          	lw	x22,32(x2)
 ce8:	01c12b83          	lw	x23,28(x2)
 cec:	01812c03          	lw	x24,24(x2)
 cf0:	01412c83          	lw	x25,20(x2)
 cf4:	04010113          	addi	x2,x2,64
#   uart_send_str(" is not here\r\n\r\n");
 cf8:	00000317          	auipc	x6,0x0
 cfc:	18430067          	jalr	x0,388(x6) # e7c <uart_send_str>
#       if (add_object_to_list(to->objects, ENTITY_MAX_OBJECTS, oid)) {
 d00:	01798533          	add	x10,x19,x23
 d04:	00351513          	slli	x10,x10,0x3
 d08:	00550513          	addi	x10,x10,5
 d0c:	02000593          	addi	x11,x0,32
 d10:	00aa0533          	add	x10,x20,x10
 d14:	00000097          	auipc	x1,0x0
 d18:	968080e7          	jalr	x1,-1688(x1) # 67c <add_object_to_list>
 d1c:	04050263          	beq	x10,x0,d60 <action_give+0x1dc>
#         remove_object_from_list_by_index(lso, j);
 d20:	00040513          	addi	x10,x8,0
# }
 d24:	03812403          	lw	x8,56(x2)
 d28:	03c12083          	lw	x1,60(x2)
 d2c:	03012903          	lw	x18,48(x2)
 d30:	02c12983          	lw	x19,44(x2)
 d34:	02812a03          	lw	x20,40(x2)
 d38:	02412a83          	lw	x21,36(x2)
 d3c:	02012b03          	lw	x22,32(x2)
 d40:	01c12b83          	lw	x23,28(x2)
 d44:	01812c03          	lw	x24,24(x2)
 d48:	01412c83          	lw	x25,20(x2)
#         remove_object_from_list_by_index(lso, j);
 d4c:	00048593          	addi	x11,x9,0
# }
 d50:	03412483          	lw	x9,52(x2)
 d54:	04010113          	addi	x2,x2,64
#         remove_object_from_list_by_index(lso, j);
 d58:	00000317          	auipc	x6,0x0
 d5c:	90830067          	jalr	x0,-1784(x6) # 660 <remove_object_from_list_by_index>
# }
 d60:	03c12083          	lw	x1,60(x2)
 d64:	03812403          	lw	x8,56(x2)
 d68:	03412483          	lw	x9,52(x2)
 d6c:	03012903          	lw	x18,48(x2)
 d70:	02c12983          	lw	x19,44(x2)
 d74:	02812a03          	lw	x20,40(x2)
 d78:	02412a83          	lw	x21,36(x2)
 d7c:	02012b03          	lw	x22,32(x2)
 d80:	01c12b83          	lw	x23,28(x2)
 d84:	01812c03          	lw	x24,24(x2)
 d88:	01412c83          	lw	x25,20(x2)
 d8c:	04010113          	addi	x2,x2,64
 d90:	00008067          	jalr	x0,0(x1)

00000d94 <print_help>:
# 
# void print_help() {
#   uart_send_str(
 d94:	00001537          	lui	x10,0x1
 d98:	16850513          	addi	x10,x10,360 # 1168 <delay+0x240>
 d9c:	00000317          	auipc	x6,0x0
 da0:	0e030067          	jalr	x0,224(x6) # e7c <uart_send_str>

00000da4 <input>:
#       "display inventory\r\n  t <object>: take object\r\n  d <object>: drop "
#       "object\r\n  g <object> <entity>: give object to entity\r\n  help: this "
#       "message\r\n\r\n");
# }
# 
# void input(input_buffer *buf) {
 da4:	fe010113          	addi	x2,x2,-32
 da8:	00812c23          	sw	x8,24(x2)
 dac:	00912a23          	sw	x9,20(x2)
 db0:	01212823          	sw	x18,16(x2)
 db4:	01312623          	sw	x19,12(x2)
 db8:	01412423          	sw	x20,8(x2)
 dbc:	00112e23          	sw	x1,28(x2)
 dc0:	00050413          	addi	x8,x10,0
#   while (1) {
#     const char ch = uart_read_char();
#     if (ch == CHAR_BACKSPACE) {
 dc4:	07f00913          	addi	x18,x0,127
#       if (buf->ix > 0) {
#         buf->ix--;
#         uart_send_char(ch);
#       }
#     } else if (ch == CHAR_CARRIAGE_RETURN ||
 dc8:	00d00993          	addi	x19,x0,13
 dcc:	04f00a13          	addi	x20,x0,79
#     } else {
#       buf->line[buf->ix] = ch;
#       buf->ix++;
#       uart_send_char(ch);
#     }
#     *leds = buf->ix | 0x70;
 dd0:	000024b7          	lui	x9,0x2
#     const char ch = uart_read_char();
 dd4:	00000097          	auipc	x1,0x0
 dd8:	13c080e7          	jalr	x1,316(x1) # f10 <uart_read_char>
#     if (ch == CHAR_BACKSPACE) {
 ddc:	05044783          	lbu	x15,80(x8)
 de0:	03251663          	bne	x10,x18,e0c <input+0x68>
#       if (buf->ix > 0) {
 de4:	00078a63          	beq	x15,x0,df8 <input+0x54>
#         buf->ix--;
 de8:	fff78793          	addi	x15,x15,-1
#       buf->ix++;
 dec:	04f40823          	sb	x15,80(x8)
#       uart_send_char(ch);
 df0:	00000097          	auipc	x1,0x0
 df4:	108080e7          	jalr	x1,264(x1) # ef8 <uart_send_char>
#     *leds = buf->ix | 0x70;
 df8:	05044783          	lbu	x15,80(x8)
 dfc:	5c84a703          	lw	x14,1480(x9) # 25c8 <leds>
 e00:	0707e793          	ori	x15,x15,112
 e04:	00f70023          	sb	x15,0(x14)
#   while (1) {
 e08:	fcdff06f          	jal	x0,dd4 <input+0x30>
#     } else if (ch == CHAR_CARRIAGE_RETURN ||
 e0c:	00f406b3          	add	x13,x8,x15
 e10:	01350463          	beq	x10,x19,e18 <input+0x74>
 e14:	03479663          	bne	x15,x20,e40 <input+0x9c>
#       buf->line[buf->ix] = 0;
 e18:	00068023          	sb	x0,0(x13)
#       buf->ix = 0;
 e1c:	04040823          	sb	x0,80(x8)
#   }
# }
 e20:	01c12083          	lw	x1,28(x2)
 e24:	01812403          	lw	x8,24(x2)
 e28:	01412483          	lw	x9,20(x2)
 e2c:	01012903          	lw	x18,16(x2)
 e30:	00c12983          	lw	x19,12(x2)
 e34:	00812a03          	lw	x20,8(x2)
 e38:	02010113          	addi	x2,x2,32
 e3c:	00008067          	jalr	x0,0(x1)
#       buf->line[buf->ix] = ch;
 e40:	00a68023          	sb	x10,0(x13)
#       buf->ix++;
 e44:	00178793          	addi	x15,x15,1
 e48:	fa5ff06f          	jal	x0,dec <input+0x48>

00000e4c <strings_equal>:
# 
# bool strings_equal(const char *s1, const char *s2) {
 e4c:	00050793          	addi	x15,x10,0
#   while (1) {
#     char diff = *s1 - *s2;
 e50:	0007c703          	lbu	x14,0(x15)
 e54:	0005c503          	lbu	x10,0(x11)
#     if (diff)
 e58:	00a71e63          	bne	x14,x10,e74 <strings_equal+0x28>
#       return FALSE;
#     if (!*s1 && !*s2)
 e5c:	00051663          	bne	x10,x0,e68 <strings_equal+0x1c>
 e60:	00100513          	addi	x10,x0,1
 e64:	00008067          	jalr	x0,0(x1)
#       return TRUE;
#     if (!*s1 || !*s2)
#       return FALSE;
#     s1++;
 e68:	00178793          	addi	x15,x15,1
#     s2++;
 e6c:	00158593          	addi	x11,x11,1
#   while (1) {
 e70:	fe1ff06f          	jal	x0,e50 <strings_equal+0x4>
#       return FALSE;
 e74:	00000513          	addi	x10,x0,0
#   }
# }
 e78:	00008067          	jalr	x0,0(x1)

00000e7c <uart_send_str>:
# 
# void uart_send_str(const char *str) {
#   while (*str) {
#     while (*uart_out)
 e7c:	000026b7          	lui	x13,0x2
#   while (*str) {
 e80:	00054783          	lbu	x15,0(x10)
 e84:	00079463          	bne	x15,x0,e8c <uart_send_str+0x10>
#       ;
#     *uart_out = *str++;
#   }
# }
 e88:	00008067          	jalr	x0,0(x1)
#     while (*uart_out)
 e8c:	5cc6a703          	lw	x14,1484(x13) # 25cc <uart_out>
 e90:	00074603          	lbu	x12,0(x14)
 e94:	fe061ee3          	bne	x12,x0,e90 <uart_send_str+0x14>
#     *uart_out = *str++;
 e98:	00150513          	addi	x10,x10,1
 e9c:	00f70023          	sb	x15,0(x14)
 ea0:	fe1ff06f          	jal	x0,e80 <uart_send_str+0x4>

00000ea4 <uart_send_hex_byte>:
# 
# void uart_send_hex_byte(char ch) {
 ea4:	ff010113          	addi	x2,x2,-16
 ea8:	00812423          	sw	x8,8(x2)
 eac:	00050413          	addi	x8,x10,0
#   uart_send_hex_nibble((ch & 0xf0) >> 4);
 eb0:	00455513          	srli	x10,x10,0x4
# void uart_send_hex_byte(char ch) {
 eb4:	00112623          	sw	x1,12(x2)
#   uart_send_hex_nibble((ch & 0xf0) >> 4);
 eb8:	00000097          	auipc	x1,0x0
 ebc:	020080e7          	jalr	x1,32(x1) # ed8 <uart_send_hex_nibble>
#   uart_send_hex_nibble(ch & 0x0f);
 ec0:	00f47513          	andi	x10,x8,15
# }
 ec4:	00812403          	lw	x8,8(x2)
 ec8:	00c12083          	lw	x1,12(x2)
 ecc:	01010113          	addi	x2,x2,16
#   uart_send_hex_nibble(ch & 0x0f);
 ed0:	00000317          	auipc	x6,0x0
 ed4:	00830067          	jalr	x0,8(x6) # ed8 <uart_send_hex_nibble>

00000ed8 <uart_send_hex_nibble>:
# 
# void uart_send_hex_nibble(char nibble) {
#   if (nibble < 10) {
 ed8:	00900793          	addi	x15,x0,9
 edc:	00a7ea63          	bltu	x15,x10,ef0 <uart_send_hex_nibble+0x18>
#     uart_send_char('0' + nibble);
 ee0:	03050513          	addi	x10,x10,48
#   } else {
#     uart_send_char('A' + (nibble - 10));
 ee4:	0ff57513          	andi	x10,x10,255
 ee8:	00000317          	auipc	x6,0x0
 eec:	01030067          	jalr	x0,16(x6) # ef8 <uart_send_char>
 ef0:	03750513          	addi	x10,x10,55
 ef4:	ff1ff06f          	jal	x0,ee4 <uart_send_hex_nibble+0xc>

00000ef8 <uart_send_char>:
#   }
# }
# 
# void uart_send_char(char ch) {
#   while (*uart_out)
 ef8:	000027b7          	lui	x15,0x2
 efc:	5cc7a783          	lw	x15,1484(x15) # 25cc <uart_out>
 f00:	0007c703          	lbu	x14,0(x15)
 f04:	fe071ee3          	bne	x14,x0,f00 <uart_send_char+0x8>
#     ;
#   *uart_out = ch;
 f08:	00a78023          	sb	x10,0(x15)
# }
 f0c:	00008067          	jalr	x0,0(x1)

00000f10 <uart_read_char>:
# 
# char uart_read_char() {
#   char ch;
#   while ((ch = *uart_in) == 0)
 f10:	000027b7          	lui	x15,0x2
 f14:	5d07a703          	lw	x14,1488(x15) # 25d0 <uart_in>
 f18:	00074783          	lbu	x15,0(x14)
 f1c:	0ff7f513          	andi	x10,x15,255
 f20:	fe078ce3          	beq	x15,x0,f18 <uart_read_char+0x8>
#     ;
#   return ch;
# }
 f24:	00008067          	jalr	x0,0(x1)

00000f28 <delay>:
# 
# inline void delay(volatile unsigned int ticks) {
 f28:	ff010113          	addi	x2,x2,-16
 f2c:	00a12623          	sw	x10,12(x2)
#   while (ticks--)
 f30:	00c12783          	lw	x15,12(x2)
 f34:	fff78713          	addi	x14,x15,-1
 f38:	00e12623          	sw	x14,12(x2)
 f3c:	fe079ae3          	bne	x15,x0,f30 <delay+0x8>
#     ;
# }
 f40:	01010113          	addi	x2,x2,16
 f44:	00008067          	jalr	x0,0(x1)
